

Microchip MPLAB XC8 Assembler V2.46 build 20240104201356 
                                                                                               Wed Sep 04 09:46:02 2024

Microchip MPLAB XC8 C Compiler v2.46 (Free license) build 20240104201356 Og1 
     1                           	processor	18F47Q83
     2                           	fnconf	rparam,??,?,0
     3                           	pagewidth 120
     4                           	opt	flic
     5                           	psect	const,global,reloc=2,class=CONST,delta=1,noexec
     6                           	psect	_boot_version_text,global,ovrld,reloc=2,class=CODE,delta=1,noexec
     7                           	psect	nvCOMRAM,global,class=COMRAM,space=1,delta=1,lowdata,noexec
     8                           	psect	cinit,global,reloc=2,class=CODE,delta=1
     9                           	psect	bssCOMRAM,global,class=COMRAM,space=1,delta=1,lowdata,noexec
    10                           	psect	bssBANK5,global,class=BANK5,space=1,delta=1,lowdata,noexec
    11                           	psect	bssBANK6,global,class=BANK6,space=1,delta=1,lowdata,noexec
    12                           	psect	bssBANK7,global,class=BANK7,space=1,delta=1,lowdata,noexec
    13                           	psect	cstackCOMRAM,global,class=COMRAM,space=1,delta=1,lowdata,noexec
    14                           	psect	text0,global,reloc=2,class=CODE,delta=1
    15                           	psect	text1,global,reloc=2,class=CODE,delta=1
    16                           	psect	text2,global,reloc=2,class=CODE,delta=1
    17                           	psect	text3,global,reloc=2,class=CODE,delta=1
    18                           	psect	text4,global,reloc=2,class=CODE,delta=1
    19                           	psect	text5,global,reloc=2,class=CODE,delta=1
    20                           	psect	text6,global,reloc=2,class=CODE,delta=1
    21                           	psect	text7,global,reloc=2,class=CODE,delta=1
    22                           	psect	text8,global,reloc=2,class=CODE,delta=1
    23                           	psect	text9,global,reloc=2,class=CODE,delta=1
    24                           	psect	text10,global,reloc=2,class=CODE,delta=1
    25                           	psect	text11,global,reloc=2,class=CODE,delta=1
    26                           	psect	text12,global,reloc=2,class=CODE,delta=1
    27                           	psect	text13,global,reloc=2,class=CODE,delta=1
    28                           	psect	text14,global,reloc=2,class=CODE,delta=1
    29                           	psect	text15,global,reloc=2,class=CODE,delta=1
    30                           	psect	text16,global,reloc=2,class=CODE,delta=1
    31                           	psect	text17,global,reloc=2,class=CODE,delta=1
    32                           	psect	text18,global,reloc=2,class=CODE,delta=1
    33                           	psect	text19,global,reloc=2,class=CODE,delta=1
    34                           	psect	text20,global,reloc=2,class=CODE,delta=1
    35                           	psect	text21,global,reloc=2,class=CODE,delta=1
    36                           	psect	text22,global,reloc=2,class=CODE,delta=1
    37                           	psect	text23,global,reloc=2,class=CODE,delta=1
    38                           	psect	text24,global,reloc=2,class=CODE,delta=1
    39                           	psect	text25,global,reloc=2,class=CODE,delta=1
    40                           	psect	text26,global,reloc=2,class=CODE,delta=1
    41                           	psect	ivt0x8,global,reloc=2,class=CODE,delta=1,noexec,keep,optim=
    42                           	psect	intsave_regs,global,class=BIGRAM,space=1,delta=1,noexec
    43                           	psect	rparam,global,class=COMRAM,space=1,delta=1,noexec
    44                           	psect	config,global,abs,ovrld,class=CONFIG,space=4,delta=1,noexec
    45   000000                     
    46                           ; Generated 18/12/2023 GMT
    47                           ; 
    48                           ; Copyright © 2023, Microchip Technology Inc. and its subsidiaries ("Microchip")
    49                           ; All rights reserved.
    50                           ; 
    51                           ; This software is developed by Microchip Technology Inc. and its subsidiaries ("Microch
      +                          ip").
    52                           ; 
    53                           ; Redistribution and use in source and binary forms, with or without modification, are
    54                           ; permitted provided that the following conditions are met:
    55                           ; 
    56                           ;     1. Redistributions of source code must retain the above copyright notice, this lis
      +                          t of
    57                           ;        conditions and the following disclaimer.
    58                           ; 
    59                           ;     2. Redistributions in binary form must reproduce the above copyright notice, this 
      +                          list
    60                           ;        of conditions and the following disclaimer in the documentation and/or other
    61                           ;        materials provided with the distribution. Publication is not required when
    62                           ;        this file is used in an embedded application.
    63                           ; 
    64                           ;     3. Microchip's name may not be used to endorse or promote products derived from th
      +                          is
    65                           ;        software without specific prior written permission.
    66                           ; 
    67                           ; THIS SOFTWARE IS PROVIDED BY MICROCHIP "AS IS" AND ANY EXPRESS OR IMPLIED WARRANTIES,
    68                           ; INCLUDING, BUT NOT LIMITED TO, THE IMPLIED WARRANTIES OF MERCHANTABILITY AND FITNESS F
      +                          OR
    69                           ; PURPOSE ARE DISCLAIMED.  IN NO EVENT SHALL MICROCHIP BE LIABLE FOR ANY DIRECT, INDIREC
      +                          T,
    70                           ; INCIDENTAL, SPECIAL, EXEMPLARY, OR CONSEQUENTIAL DAMAGES (INCLUDING BUT NOT LIMITED TO
    71                           ; PROCUREMENT OF SUBSTITUTE GOODS OR SERVICES; LOSS OF USE, DATA OR PROFITS; OR BUSINESS
    72                           ; INTERRUPTION) HOWSOEVER CAUSED AND ON ANY THEORY OF LIABILITY, WHETHER IN CONTRACT, ST
      +                          RICT
    73                           ; LIABILITY, OR TORT (INCLUDING NEGLIGENCE OR OTHERWISE) ARISING IN ANY WAY OUT OF THE U
      +                          SE OF
    74                           ; THIS SOFTWARE, EVEN IF ADVISED OF THE POSSIBILITY OF SUCH DAMAGE.
    75                           ; 
    76                           ; 
    77                           ; Code-generator required, PIC18F47Q83 Definitions
    78                           ; 
    79                           ; SFR Addresses
    80   000000                     
    81 ;; Function _TMR0_Start is unused but had its address taken
    82   000000                     
    83 ;; Function _TMR0_Stop is unused but had its address taken
    84   000000                     
    85 ;; Function _TMR0_PeriodCountSet is unused but had its address taken
    86   000000                     
    87 ;; Function _TMR0_DefaultOverflowCallback is unused but had its address taken
    88   000000                     
    89                           	psect	const
    90   0000C4                     __pconst:
    91                           	callstack 0
    92   0000C4                     _Timer0:
    93                           	callstack 0
    94   0000C4  1E                 	db	low _TMR0_Initialize
    95   0000C5  0B                 	db	high _TMR0_Initialize
    96   0000C6  00                 	db	0
    97   0000C7  00                 	db	0
    98   0000C8  00                 	db	0
    99   0000C9  00                 	db	0
   100   0000CA  00                 	db	0
   101   0000CB  00                 	db	0
   102   0000CC  5A                 	db	low _TMR0_OverflowCallbackRegister
   103   0000CD  0C                 	db	high _TMR0_OverflowCallbackRegister
   104   0000CE  00                 	db	0
   105   0000CF  00                 	db	0
   106   0000D0                     __end_of_Timer0:
   107                           	callstack 0
   108   000000                     _boot_version_absaddr	set	6
   109   000000                     _boot_version_absaddr	set	6
   110   0000D0                     STR_2:
   111                           
   112                           ; BSR set to: 2
   113   0000D0  45                 	db	69	;'E'
   114   0000D1  72                 	db	114	;'r'
   115   0000D2  61                 	db	97	;'a'
   116   0000D3  73                 	db	115	;'s'
   117   0000D4  69                 	db	105	;'i'
   118   0000D5  6E                 	db	110	;'n'
   119   0000D6  67                 	db	103	;'g'
   120   0000D7  20                 	db	32
   121   0000D8  45                 	db	69	;'E'
   122   0000D9  45                 	db	69	;'E'
   123   0000DA  50                 	db	80	;'P'
   124   0000DB  52                 	db	82	;'R'
   125   0000DC  4F                 	db	79	;'O'
   126   0000DD  4D                 	db	77	;'M'
   127   0000DE  00                 	db	0
   128   0000DF                     STR_1:
   129                           
   130                           ; BSR set to: 2
   131   0000DF  45                 	db	69	;'E'
   132   0000E0  72                 	db	114	;'r'
   133   0000E1  61                 	db	97	;'a'
   134   0000E2  73                 	db	115	;'s'
   135   0000E3  69                 	db	105	;'i'
   136   0000E4  6E                 	db	110	;'n'
   137   0000E5  67                 	db	103	;'g'
   138   0000E6  20                 	db	32
   139   0000E7  46                 	db	70	;'F'
   140   0000E8  6C                 	db	108	;'l'
   141   0000E9  61                 	db	97	;'a'
   142   0000EA  73                 	db	115	;'s'
   143   0000EB  68                 	db	104	;'h'
   144   0000EC  00                 	db	0
   145                           
   146                           	psect	_boot_version_text
   147   000006                     __p_boot_version_text:
   148                           	callstack 0
   149   000006                     _boot_version:
   150                           	callstack 0
   151   000006  0201               	dw	513
   152   000008                     __end_of_boot_version:
   153                           	callstack 0
   154   000000                     _NVMADRL	set	67
   155   000000                     _NVMLOCK	set	66
   156   000000                     _NVMADRH	set	68
   157   000000                     _NVMADRU	set	69
   158   000000                     _SPI1CON1	set	133
   159   000000                     _T0CON0	set	794
   160   000000                     _T0CON1	set	795
   161   000000                     _OSCTUNE	set	176
   162   000000                     _OSCFRQ	set	177
   163   000000                     _OSCEN	set	179
   164   000000                     _IOCCF	set	1047
   165   000000                     _IOCCN	set	1046
   166   000000                     _IOCCP	set	1045
   167   000000                     _IOCBF	set	1039
   168   000000                     _IOCBN	set	1038
   169   000000                     _IOCBP	set	1037
   170   000000                     _IOCAF	set	1031
   171   000000                     _IOCAN	set	1030
   172   000000                     _IOCAP	set	1029
   173   000000                     _INLVLC	set	1044
   174   000000                     _INLVLB	set	1036
   175   000000                     _INLVLA	set	1028
   176   000000                     _SLRCONC	set	1043
   177   000000                     _SLRCONB	set	1035
   178   000000                     _SLRCONA	set	1027
   179   000000                     _ODCONC	set	1042
   180   000000                     _ODCONB	set	1034
   181   000000                     _ODCONA	set	1026
   182   000000                     _WPUC	set	1041
   183   000000                     _WPUB	set	1033
   184   000000                     _WPUA	set	1025
   185   000000                     _ANSELD	set	1048
   186   000000                     _ANSELC	set	1040
   187   000000                     _ANSELB	set	1032
   188                           
   189                           	psect	nvCOMRAM
   190   000534                     __pnvCOMRAM:
   191                           	callstack 0
   192   000534                     _crc:
   193                           	callstack 0
   194   000534                     	ds	2
   195   000536                     _TMR0_OverflowCallback:
   196                           	callstack 0
   197   000536                     	ds	2
   198   000538                     _flags:
   199                           	callstack 0
   200   000538                     	ds	1
   201   000000                     _SPI1CON0bits	set	132
   202   000000                     _U1ERRIRbits	set	690
   203   000000                     _T0CON0bits	set	794
   204   000000                     _LATAbits	set	1214
   205   000000                     _TRISBbits	set	1223
   206   000000                     _TRISAbits	set	1222
   207   000000                     _LATCbits	set	1216
   208   000000                     _LATBbits	set	1215
   209   000000                     _PORTA	set	1230
   210   000000                     _TRISEbits	set	1226
   211   000000                     _TRISCbits	set	1224
   212   000000                     _LATB6	set	9726
   213   000000                     _LATB7	set	9727
   214   000000                     _TRISB6	set	9790
   215   000000                     _TRISB7	set	9791
   216   000000                     _NVMCON0bits	set	64
   217   000000                     _NVMCON1bits	set	65
   218   000000                     _SPI1RXB	set	128
   219   000000                     _SPI1TXB	set	129
   220   000000                     _SPI1TCNTL	set	130
   221   000000                     _SPI1CON2	set	134
   222   000000                     _ACTCON	set	172
   223   000000                     _OSCCON1	set	173
   224   000000                     _RC3PPS	set	532
   225   000000                     _RC5PPS	set	534
   226   000000                     _RC6PPS	set	535
   227   000000                     _SPI1SDIPPS	set	619
   228   000000                     _U1RXPPS	set	626
   229   000000                     _RC4I2C	set	646
   230   000000                     _RC3I2C	set	647
   231   000000                     _RB2I2C	set	648
   232   000000                     _RB1I2C	set	649
   233   000000                     _ANSELA	set	1024
   234   000000                     _LATA	set	1214
   235   000000                     _TRISA	set	1222
   236   000000                     _LATE	set	1218
   237   000000                     _LATD	set	1217
   238   000000                     _LATC	set	1216
   239   000000                     _LATB	set	1215
   240   000000                     _PORTAbits	set	1230
   241   000000                     _INTCON0bits	set	1238
   242   000000                     _TRISE	set	1226
   243   000000                     _TRISD	set	1225
   244   000000                     _TRISC	set	1224
   245   000000                     _TRISB	set	1223
   246   000000                     _INLVLD	set	1052
   247   000000                     _SLRCOND	set	1051
   248   000000                     _ODCOND	set	1050
   249   000000                     _WPUD	set	1049
   250   000000                     _ANSELE	set	1056
   251   000000                     _PIE3bits	set	1185
   252   000000                     _PIR3bits	set	1201
   253   000000                     _IOCEF	set	1063
   254   000000                     _IOCEN	set	1062
   255   000000                     _IOCEP	set	1061
   256   000000                     _INLVLE	set	1060
   257   000000                     _SLRCONE	set	1059
   258   000000                     _ODCONE	set	1058
   259   000000                     _WPUE	set	1057
   260   000000                     _U1RXB	set	673
   261   000000                     _TMR0L	set	792
   262   000000                     _TMR0H	set	793
   263   000000                     _SPI1SCKPPS	set	618
   264   000000                     _OSCCON3	set	175
   265   000000                     _IPR3bits	set	869
   266   000000                     _IPR4bits	set	870
   267   000000                     _PIR4bits	set	1202
   268   000000                     _PIR6bits	set	1204
   269   000000                     _PIE6bits	set	1188
   270   000000                     _PIE4bits	set	1186
   271   000000                     _IPR6bits	set	872
   272   000000                     _U1ERRIE	set	691
   273   000000                     _U1ERRIR	set	690
   274   000000                     _U1UIR	set	689
   275   000000                     _U1FIFO	set	688
   276   000000                     _U1BRGH	set	687
   277   000000                     _U1BRGL	set	686
   278   000000                     _U1CON2	set	685
   279   000000                     _U1CON1	set	684
   280   000000                     _U1CON0	set	683
   281   000000                     _U1P3H	set	682
   282   000000                     _U1P3L	set	681
   283   000000                     _U1P2H	set	680
   284   000000                     _U1P2L	set	679
   285   000000                     _U1P1H	set	678
   286   000000                     _U1P1L	set	677
   287   000000                     _U1TXCHK	set	676
   288   000000                     _U1TXB	set	675
   289   000000                     _U1RXCHK	set	674
   290   000000                     _PORTBbits	set	1231
   291   000000                     _PORTD	set	1233
   292   000000                     _SPI1BAUD	set	137
   293   000000                     _SPI1CON0	set	132
   294   000000                     _SPI1CLK	set	140
   295   000000                     _NVMDATL	set	70
   296                           
   297                           ; #config settings
   298                           
   299                           	psect	cinit
   300   00095A                     __pcinit:
   301                           	callstack 0
   302   00095A                     start_initialization:
   303                           	callstack 0
   304   00095A                     __initialization:
   305                           	callstack 0
   306                           
   307                           ; Clear objects allocated to BANK7 (256 bytes)
   308   00095A  EE01  F300         	lfsr	0,__pbssBANK7
   309   00095E  EE10 F100          	lfsr	1,256
   310   000962                     clear_0:
   311   000962  6AEE               	clrf	postinc0,c
   312   000964  50E5               	movf	postdec1,w,c
   313   000966  50E1               	movf	fsr1l,w,c
   314   000968  E1FC               	bnz	clear_0
   315   00096A  50E2               	movf	fsr1h,w,c
   316   00096C  E1FA               	bnz	clear_0
   317                           
   318                           ; Clear objects allocated to BANK6 (128 bytes)
   319   00096E  EE01  F200         	lfsr	0,__pbssBANK6
   320   000972  0E80               	movlw	128
   321   000974                     clear_1:
   322   000974  6AEE               	clrf	postinc0,c
   323   000976  06E8               	decf	wreg,f,c
   324   000978  E1FD               	bnz	clear_1
   325                           
   326                           ; Clear objects allocated to BANK5 (128 bytes)
   327   00097A  EE01  F160         	lfsr	0,__pbssBANK5
   328   00097E  0E80               	movlw	128
   329   000980                     clear_2:
   330   000980  6AEE               	clrf	postinc0,c
   331   000982  06E8               	decf	wreg,f,c
   332   000984  E1FD               	bnz	clear_2
   333                           
   334                           ; Clear objects allocated to COMRAM (21 bytes)
   335   000986  EE01  F11F         	lfsr	0,__pbssCOMRAM
   336   00098A  0E15               	movlw	21
   337   00098C                     clear_3:
   338   00098C  6AEE               	clrf	postinc0,c
   339   00098E  06E8               	decf	wreg,f,c
   340   000990  E1FD               	bnz	clear_3
   341                           
   342                           ;
   343                           ; Setup IVTBASE
   344                           ;
   345   000992  0104               	movlb	4
   346   000994  0E08               	movlw	(ivt0x8_base shr 0)& (0+255)
   347   000996  6F5D               	movwf	93,b
   348   000998  0E00               	movlw	(ivt0x8_base shr (0+8))& (0+255)
   349   00099A  6F5E               	movwf	94,b
   350   00099C  0E00               	movlw	(ivt0x8_base shr (0+16))& (0+255)
   351   00099E  6F5F               	movwf	95,b
   352   0009A0                     end_of_initialization:
   353                           	callstack 0
   354   0009A0                     __end_of__initialization:
   355                           	callstack 0
   356   0009A0  0100               	movlb	0
   357   0009A2  EFCB  F003         	goto	_main	;jump to C main() function
   358                           
   359                           	psect	bssCOMRAM
   360   00051F                     __pbssCOMRAM:
   361                           	callstack 0
   362   00051F                     _addr:
   363                           	callstack 0
   364   00051F                     	ds	4
   365   000523                     _timerTMR0ReloadVal16bit:
   366                           	callstack 0
   367   000523                     	ds	2
   368   000525                     _fsr2:
   369                           	callstack 0
   370   000525                     	ds	1
   371   000526                     _type:
   372                           	callstack 0
   373   000526                     	ds	1
   374   000527                     _count:
   375                           	callstack 0
   376   000527                     	ds	1
   377   000528                     _checksum:
   378                           	callstack 0
   379   000528                     	ds	1
   380   000529                     _timeout:
   381                           	callstack 0
   382   000529                     	ds	1
   383   00052A                     _discard:
   384                           	callstack 0
   385   00052A                     	ds	1
   386   00052B                     _rx_out:
   387                           	callstack 0
   388   00052B                     	ds	1
   389   00052C                     _rx_in:
   390                           	callstack 0
   391   00052C                     	ds	1
   392   00052D                     _rx_count:
   393                           	callstack 0
   394   00052D                     	ds	1
   395   00052E                     _tx_out:
   396                           	callstack 0
   397   00052E                     	ds	1
   398   00052F                     _tx_in:
   399                           	callstack 0
   400   00052F                     	ds	1
   401   000530                     _tx_count:
   402                           	callstack 0
   403   000530                     	ds	1
   404   000531                     _tblptr:
   405                           	callstack 0
   406   000531                     	ds	3
   407                           
   408                           	psect	bssBANK5
   409   000560                     __pbssBANK5:
   410                           	callstack 0
   411   000560                     _serial_out:
   412                           	callstack 0
   413   000560                     	ds	128
   414                           
   415                           	psect	bssBANK6
   416   000600                     __pbssBANK6:
   417                           	callstack 0
   418   000600                     _serial_in:
   419                           	callstack 0
   420   000600                     	ds	128
   421                           
   422                           	psect	bssBANK7
   423   000700                     __pbssBANK7:
   424                           	callstack 0
   425   000700                     _BUFX:
   426                           	callstack 0
   427   000700                     	ds	256
   428                           
   429                           	psect	cstackCOMRAM
   430   000501                     __pcstackCOMRAM:
   431                           	callstack 0
   432   000501                     i1update_status@status:
   433                           	callstack 0
   434                           
   435                           ; 1 bytes @ 0x0
   436   000501                     	ds	1
   437   000502                     ??_boot_int_lo:
   438                           
   439                           ; 1 bytes @ 0x1
   440   000502                     	ds	7
   441   000509                     ??_do_write:
   442   000509                     usart_send@data:
   443                           	callstack 0
   444   000509                     update_status@status:
   445                           	callstack 0
   446   000509                     read_byte@hi:
   447                           	callstack 0
   448   000509                     do_write_ee@data:
   449                           	callstack 0
   450   000509                     TMR0_OverflowCallbackRegister@CallbackHandler:
   451                           	callstack 0
   452                           
   453                           ; 2 bytes @ 0x8
   454   000509                     	ds	1
   455   00050A                     usart_put_hex@c:
   456                           	callstack 0
   457   00050A                     read_byte@lo:
   458                           	callstack 0
   459   00050A                     usart_puts_r@str:
   460                           	callstack 0
   461                           
   462                           ; 3 bytes @ 0x9
   463   00050A                     	ds	1
   464   00050B                     ??_TMR0_Initialize:
   465   00050B                     usart_put_hex@x:
   466                           	callstack 0
   467                           
   468                           ; 1 bytes @ 0xA
   469   00050B                     	ds	1
   470   00050C                     do_write@cmd:
   471                           	callstack 0
   472   00050C                     usart_put_short@x:
   473                           	callstack 0
   474   00050C                     usart_put_long@x:
   475                           	callstack 0
   476                           
   477                           ; 4 bytes @ 0xB
   478   00050C                     	ds	1
   479   00050D                     usart_puts2_r@str:
   480                           	callstack 0
   481                           
   482                           ; 3 bytes @ 0xC
   483   00050D                     	ds	1
   484   00050E                     
   485                           ; 1 bytes @ 0xD
   486   00050E                     	ds	2
   487   000510                     ??_b_write_block:
   488   000510                     
   489                           ; 1 bytes @ 0xF
   490   000510                     	ds	3
   491   000513                     ??_b_last:
   492                           
   493                           ; 1 bytes @ 0x12
   494   000513                     	ds	3
   495   000516                     ??_b_process:
   496                           
   497                           ; 1 bytes @ 0x15
   498   000516                     	ds	8
   499   00051E                     b_process@status:
   500                           	callstack 0
   501                           
   502                           ; 1 bytes @ 0x1D
   503   00051E                     	ds	1
   504   00051F                     
   505                           ; 1 bytes @ 0x1E
   506 ;;
   507 ;;Main: autosize = 0, tempsize = 0, incstack = 0, save=0
   508 ;;
   509 ;; *************** function _main *****************
   510 ;; Defined at:
   511 ;;		line 277 in file "bootloader.c"
   512 ;; Parameters:    Size  Location     Type
   513 ;;		None
   514 ;; Auto vars:     Size  Location     Type
   515 ;;		None
   516 ;; Return value:  Size  Location     Type
   517 ;;                  1    wreg      void 
   518 ;; Registers used:
   519 ;;		wreg, fsr0l, fsr0h, fsr2l, fsr2h, status,2, status,0, tblptrl, tblptrh, tblptru, cstack
   520 ;; Tracked objects:
   521 ;;		On entry : 0/0
   522 ;;		On exit  : 0/0
   523 ;;		Unchanged: 0/0
   524 ;; Data sizes:     COMRAM   BANK5   BANK6   BANK7   BANK8   BANK9  BANK10  BANK11  BANK12  BANK13  BANK14  BANK15  BANK1
      +6  BANK17  BANK18  BANK19  BANK20  BANK21  BANK22  BANK23  BANK24  BANK25  BANK26  BANK27  BANK28  BANK29  BANK30  BANK3
      +1  BANK32  BANK33  BANK34  BANK35  BANK36  BANK37  BANK38  BANK39  BANK40  BANK41  BANK42  BANK43  BANK44  BANK45  BANK4
      +6  BANK47  BANK48  BANK49  BANK50  BANK51  BANK52  BANK53  BANK54
   525 ;;      Params:         0       0       0       0       0       0       0       0       0       0       0       0       
      +0       0       0       0       0       0       0       0       0       0       0       0       0       0       0       
      +0       0       0       0       0       0       0       0       0       0       0       0       0       0       0       
      +0       0       0       0       0       0       0       0       0
   526 ;;      Locals:         0       0       0       0       0       0       0       0       0       0       0       0       
      +0       0       0       0       0       0       0       0       0       0       0       0       0       0       0       
      +0       0       0       0       0       0       0       0       0       0       0       0       0       0       0       
      +0       0       0       0       0       0       0       0       0
   527 ;;      Temps:          0       0       0       0       0       0       0       0       0       0       0       0       
      +0       0       0       0       0       0       0       0       0       0       0       0       0       0       0       
      +0       0       0       0       0       0       0       0       0       0       0       0       0       0       0       
      +0       0       0       0       0       0       0       0       0
   528 ;;      Totals:         0       0       0       0       0       0       0       0       0       0       0       0       
      +0       0       0       0       0       0       0       0       0       0       0       0       0       0       0       
      +0       0       0       0       0       0       0       0       0       0       0       0       0       0       0       
      +0       0       0       0       0       0       0       0       0
   529 ;;Total ram usage:        0 bytes
   530 ;; Hardware stack levels required when called: 8
   531 ;; This function calls:
   532 ;;		_SYSTEM_Initialize
   533 ;;		_b_process
   534 ;;		_do_write_ee
   535 ;;		_pic_init
   536 ;;		_update_status
   537 ;;		_usart_init
   538 ;; This function is called by:
   539 ;;		Startup code after reset
   540 ;; This function uses a non-reentrant model
   541 ;;
   542                           
   543                           	psect	text0
   544   000796                     __ptext0:
   545                           	callstack 0
   546   000796                     _main:
   547                           	callstack 119
   548                           
   549                           ;bootloader.c: 279:  SYSTEM_Initialize();
   550                           
   551                           ;incstack = 0
   552   000796  EC26  F006         	call	_SYSTEM_Initialize	;wreg free
   553                           
   554                           ;bootloader.c: 280:  pic_init();
   555   00079A  EC01  F004         	call	_pic_init	;wreg free
   556                           
   557                           ;bootloader.c: 282:  usart_init();
   558   00079E  EC8F  F003         	call	_usart_init	;wreg free
   559                           
   560                           ;bootloader.c: 284:     addr = 0;
   561   0007A2  0E00               	movlw	0
   562   0007A4  6E1F               	movwf	_addr^(0+1280),c
   563   0007A6  0E00               	movlw	0
   564   0007A8  6E20               	movwf	(_addr+1)^(0+1280),c
   565   0007AA  0E00               	movlw	0
   566   0007AC  6E21               	movwf	(_addr+2)^(0+1280),c
   567   0007AE  0E00               	movlw	0
   568   0007B0  6E22               	movwf	(_addr+3)^(0+1280),c
   569                           
   570                           ;bootloader.c: 285:     fsr2 = 0;
   571   0007B2  0E00               	movlw	0
   572   0007B4  6E25               	movwf	_fsr2^(0+1280),c
   573                           
   574                           ;bootloader.c: 287:     INTCON0bits.GIEL = 1;
   575   0007B6  8CD6               	bsf	214,6,c	;volatile
   576                           
   577                           ;bootloader.c: 288:     INTCON0bits.GIE = 1;
   578   0007B8  8ED6               	bsf	214,7,c	;volatile
   579                           
   580                           ;bootloader.c: 290:  LATBbits.LATB3 = 0;
   581   0007BA  96BF               	bcf	191,3,c	;volatile
   582                           
   583                           ;bootloader.c: 292:     update_status(0x40);
   584   0007BC  0E40               	movlw	64
   585   0007BE  ECD7  F005         	call	_update_status
   586                           
   587                           ;bootloader.c: 294:     while((flags & (1 << 6))
   588   0007C2  D003               	goto	l2315
   589   0007C4                     l524:
   590                           
   591                           ;bootloader.c: 296:     {;bootloader.c: 297:         if(flags & (1 << 1))
   592   0007C4  B238               	btfsc	_flags^(0+1280),1,c	;volatile
   593                           
   594                           ;bootloader.c: 298:             b_process();
   595   0007C6  EC77  F000         	call	_b_process	;wreg free
   596   0007CA                     l2315:
   597                           
   598                           ;bootloader.c: 294:     while((flags & (1 << 6))
   599   0007CA  BC38               	btfsc	_flags^(0+1280),6,c	;volatile
   600   0007CC  D7FB               	goto	l524
   601   0007CE  5029               	movf	_timeout^(0+1280),w,c	;volatile
   602   0007D0  A4D8               	btfss	status,2,c
   603   0007D2  D7F8               	goto	l524
   604                           
   605                           ;bootloader.c: 303:     addr = (uint32_t)(0x380000U) + (uint32_t)0x3FE;
   606   0007D4  0EFE               	movlw	254
   607   0007D6  6E1F               	movwf	_addr^(0+1280),c
   608   0007D8  0E03               	movlw	3
   609   0007DA  6E20               	movwf	(_addr+1)^(0+1280),c
   610   0007DC  0E38               	movlw	56
   611   0007DE  6E21               	movwf	(_addr+2)^(0+1280),c
   612   0007E0  0E00               	movlw	0
   613   0007E2  6E22               	movwf	(_addr+3)^(0+1280),c
   614                           
   615                           ;bootloader.c: 304:     do_write_ee(crc);
   616   0007E4  5034               	movf	_crc^(0+1280),w,c
   617   0007E6  EC3A  F005         	call	_do_write_ee
   618                           
   619                           ;bootloader.c: 305:     addr++;
   620   0007EA  0E01               	movlw	1
   621   0007EC  261F               	addwf	_addr^(0+1280),f,c
   622   0007EE  0E00               	movlw	0
   623   0007F0  2220               	addwfc	(_addr+1)^(0+1280),f,c
   624   0007F2  2221               	addwfc	(_addr+2)^(0+1280),f,c
   625   0007F4  2222               	addwfc	(_addr+3)^(0+1280),f,c
   626                           
   627                           ;bootloader.c: 306:     do_write_ee(crc >> 8);
   628   0007F6  5035               	movf	(_crc+1)^(0+1280),w,c
   629   0007F8  EC3A  F005         	call	_do_write_ee
   630   0007FC  00FF               	reset		;# 
   631   0007FE  EF60  F000         	goto	start
   632   000802                     __end_of_main:
   633                           	callstack 0
   634                           
   635 ;; *************** function _usart_init *****************
   636 ;; Defined at:
   637 ;;		line 36 in file "serial.c"
   638 ;; Parameters:    Size  Location     Type
   639 ;;		None
   640 ;; Auto vars:     Size  Location     Type
   641 ;;		None
   642 ;; Return value:  Size  Location     Type
   643 ;;                  1    wreg      void 
   644 ;; Registers used:
   645 ;;		wreg, status,2
   646 ;; Tracked objects:
   647 ;;		On entry : 0/0
   648 ;;		On exit  : 0/0
   649 ;;		Unchanged: 0/0
   650 ;; Data sizes:     COMRAM   BANK5   BANK6   BANK7   BANK8   BANK9  BANK10  BANK11  BANK12  BANK13  BANK14  BANK15  BANK1
      +6  BANK17  BANK18  BANK19  BANK20  BANK21  BANK22  BANK23  BANK24  BANK25  BANK26  BANK27  BANK28  BANK29  BANK30  BANK3
      +1  BANK32  BANK33  BANK34  BANK35  BANK36  BANK37  BANK38  BANK39  BANK40  BANK41  BANK42  BANK43  BANK44  BANK45  BANK4
      +6  BANK47  BANK48  BANK49  BANK50  BANK51  BANK52  BANK53  BANK54
   651 ;;      Params:         0       0       0       0       0       0       0       0       0       0       0       0       
      +0       0       0       0       0       0       0       0       0       0       0       0       0       0       0       
      +0       0       0       0       0       0       0       0       0       0       0       0       0       0       0       
      +0       0       0       0       0       0       0       0       0
   652 ;;      Locals:         0       0       0       0       0       0       0       0       0       0       0       0       
      +0       0       0       0       0       0       0       0       0       0       0       0       0       0       0       
      +0       0       0       0       0       0       0       0       0       0       0       0       0       0       0       
      +0       0       0       0       0       0       0       0       0
   653 ;;      Temps:          0       0       0       0       0       0       0       0       0       0       0       0       
      +0       0       0       0       0       0       0       0       0       0       0       0       0       0       0       
      +0       0       0       0       0       0       0       0       0       0       0       0       0       0       0       
      +0       0       0       0       0       0       0       0       0
   654 ;;      Totals:         0       0       0       0       0       0       0       0       0       0       0       0       
      +0       0       0       0       0       0       0       0       0       0       0       0       0       0       0       
      +0       0       0       0       0       0       0       0       0       0       0       0       0       0       0       
      +0       0       0       0       0       0       0       0       0
   655 ;;Total ram usage:        0 bytes
   656 ;; Hardware stack levels used: 1
   657 ;; Hardware stack levels required when called: 2
   658 ;; This function calls:
   659 ;;		Nothing
   660 ;; This function is called by:
   661 ;;		_main
   662 ;; This function uses a non-reentrant model
   663 ;;
   664                           
   665                           	psect	text1
   666   00071E                     __ptext1:
   667                           	callstack 0
   668   00071E                     _usart_init:
   669                           	callstack 124
   670                           
   671                           ;serial.c: 38: 
   672                           
   673                           ;incstack = 0
   674   00071E  9CC8               	bcf	200,6,c	;volatile
   675                           
   676                           ;serial.c: 39:     U1CON2 = 0x8;
   677   000720  8EC8               	bsf	200,7,c	;volatile
   678                           
   679                           ;serial.c: 40: 
   680   000722  90CA               	bcf	202,0,c	;volatile
   681                           
   682                           ;serial.c: 41: 
   683   000724  82CA               	bsf	202,1,c	;volatile
   684                           
   685                           ;serial.c: 43: 
   686   000726  0103               	movlb	3	; () banked
   687   000728  9366               	bcf	102,1,b	;volatile
   688                           
   689                           ;serial.c: 45: 
   690   00072A  9166               	bcf	102,0,b	;volatile
   691                           
   692                           ; BSR set to: 3
   693                           ;serial.c: 47: 
   694   00072C  0E00               	movlw	0
   695   00072E  0102               	movlb	2	; () banked
   696   000730  6FA1               	movwf	161,b	;volatile
   697                           
   698                           ;serial.c: 49: 
   699   000732  0E00               	movlw	0
   700   000734  6FA2               	movwf	162,b	;volatile
   701                           
   702                           ;serial.c: 51: 
   703   000736  0E00               	movlw	0
   704   000738  6FA3               	movwf	163,b	;volatile
   705                           
   706                           ;serial.c: 53: 
   707   00073A  0E00               	movlw	0
   708   00073C  6FA4               	movwf	164,b	;volatile
   709                           
   710                           ;serial.c: 55: 
   711   00073E  0E00               	movlw	0
   712   000740  6FA5               	movwf	165,b	;volatile
   713                           
   714                           ;serial.c: 57:  PIE4bits.U1RXIE = 1;
   715   000742  0E00               	movlw	0
   716   000744  6FA6               	movwf	166,b	;volatile
   717                           
   718                           ;serial.c: 59:  tx_count = 0;
   719   000746  0E00               	movlw	0
   720   000748  6FA7               	movwf	167,b	;volatile
   721                           
   722                           ;serial.c: 61:  tx_out = 0;
   723   00074A  0E00               	movlw	0
   724   00074C  6FA8               	movwf	168,b	;volatile
   725                           
   726                           ;serial.c: 63:  rx_in = 0;
   727   00074E  0E00               	movlw	0
   728   000750  6FA9               	movwf	169,b	;volatile
   729                           
   730                           ;serial.c: 65: }
   731   000752  0E00               	movlw	0
   732   000754  6FAA               	movwf	170,b	;volatile
   733                           
   734                           ;serial.c: 67: 
   735   000756  0EB0               	movlw	176
   736   000758  6FAB               	movwf	171,b	;volatile
   737                           
   738                           ;serial.c: 69: {
   739   00075A  0E80               	movlw	128
   740   00075C  6FAC               	movwf	172,b	;volatile
   741                           
   742                           ;serial.c: 71: 
   743   00075E  0E08               	movlw	8
   744   000760  6FAD               	movwf	173,b	;volatile
   745                           
   746                           ;serial.c: 74:  }
   747   000762  0E8A               	movlw	138
   748   000764  6FAE               	movwf	174,b	;volatile
   749                           
   750                           ;serial.c: 80: }
   751   000766  0E00               	movlw	0
   752   000768  6FAF               	movwf	175,b	;volatile
   753                           
   754                           ;serial.c: 82: 
   755   00076A  0E2E               	movlw	46
   756   00076C  6FB0               	movwf	176,b	;volatile
   757                           
   758                           ;serial.c: 84: {
   759   00076E  0E00               	movlw	0
   760   000770  6FB1               	movwf	177,b	;volatile
   761                           
   762                           ;serial.c: 86: }
   763   000772  0E80               	movlw	128
   764   000774  6FB2               	movwf	178,b	;volatile
   765                           
   766                           ;serial.c: 88: void usart_send(uint8_t data)
   767   000776  0E00               	movlw	0
   768   000778  6FB3               	movwf	179,b	;volatile
   769                           
   770                           ; BSR set to: 2
   771                           ;serial.c: 89: {
   772   00077A  80A2               	bsf	162,0,c	;volatile
   773                           
   774                           ;serial.c: 91:  INTCON0bits.GIEL = 0;
   775   00077C  0E00               	movlw	0
   776   00077E  6E30               	movwf	_tx_count^(0+1280),c
   777                           
   778                           ;serial.c: 92:  serial_out[tx_in] = data;
   779   000780  0E00               	movlw	0
   780   000782  6E2F               	movwf	_tx_in^(0+1280),c
   781                           
   782                           ;serial.c: 93:  if (++tx_in == 128) {
   783   000784  0E00               	movlw	0
   784   000786  6E2E               	movwf	_tx_out^(0+1280),c
   785                           
   786                           ;serial.c: 94:   tx_in = 0;
   787   000788  0E00               	movlw	0
   788   00078A  6E2D               	movwf	_rx_count^(0+1280),c
   789                           
   790                           ;serial.c: 95:  }
   791   00078C  0E00               	movlw	0
   792   00078E  6E2C               	movwf	_rx_in^(0+1280),c
   793                           
   794                           ;serial.c: 96:  tx_count++;
   795   000790  0E00               	movlw	0
   796   000792  6E2B               	movwf	_rx_out^(0+1280),c
   797                           
   798                           ; BSR set to: 2
   799   000794  0012               	return		;funcret
   800   000796                     __end_of_usart_init:
   801                           	callstack 0
   802                           
   803 ;; *************** function _pic_init *****************
   804 ;; Defined at:
   805 ;;		line 216 in file "bootloader.c"
   806 ;; Parameters:    Size  Location     Type
   807 ;;		None
   808 ;; Auto vars:     Size  Location     Type
   809 ;;		None
   810 ;; Return value:  Size  Location     Type
   811 ;;                  1    wreg      void 
   812 ;; Registers used:
   813 ;;		wreg, status,2, status,0
   814 ;; Tracked objects:
   815 ;;		On entry : 0/0
   816 ;;		On exit  : 0/0
   817 ;;		Unchanged: 0/0
   818 ;; Data sizes:     COMRAM   BANK5   BANK6   BANK7   BANK8   BANK9  BANK10  BANK11  BANK12  BANK13  BANK14  BANK15  BANK1
      +6  BANK17  BANK18  BANK19  BANK20  BANK21  BANK22  BANK23  BANK24  BANK25  BANK26  BANK27  BANK28  BANK29  BANK30  BANK3
      +1  BANK32  BANK33  BANK34  BANK35  BANK36  BANK37  BANK38  BANK39  BANK40  BANK41  BANK42  BANK43  BANK44  BANK45  BANK4
      +6  BANK47  BANK48  BANK49  BANK50  BANK51  BANK52  BANK53  BANK54
   819 ;;      Params:         0       0       0       0       0       0       0       0       0       0       0       0       
      +0       0       0       0       0       0       0       0       0       0       0       0       0       0       0       
      +0       0       0       0       0       0       0       0       0       0       0       0       0       0       0       
      +0       0       0       0       0       0       0       0       0
   820 ;;      Locals:         0       0       0       0       0       0       0       0       0       0       0       0       
      +0       0       0       0       0       0       0       0       0       0       0       0       0       0       0       
      +0       0       0       0       0       0       0       0       0       0       0       0       0       0       0       
      +0       0       0       0       0       0       0       0       0
   821 ;;      Temps:          0       0       0       0       0       0       0       0       0       0       0       0       
      +0       0       0       0       0       0       0       0       0       0       0       0       0       0       0       
      +0       0       0       0       0       0       0       0       0       0       0       0       0       0       0       
      +0       0       0       0       0       0       0       0       0
   822 ;;      Totals:         0       0       0       0       0       0       0       0       0       0       0       0       
      +0       0       0       0       0       0       0       0       0       0       0       0       0       0       0       
      +0       0       0       0       0       0       0       0       0       0       0       0       0       0       0       
      +0       0       0       0       0       0       0       0       0
   823 ;;Total ram usage:        0 bytes
   824 ;; Hardware stack levels used: 1
   825 ;; Hardware stack levels required when called: 2
   826 ;; This function calls:
   827 ;;		Nothing
   828 ;; This function is called by:
   829 ;;		_main
   830 ;; This function uses a non-reentrant model
   831 ;;
   832                           
   833                           	psect	text2
   834   000802                     __ptext2:
   835                           	callstack 0
   836   000802                     _pic_init:
   837                           	callstack 124
   838                           
   839                           ;bootloader.c: 218:  NVMCON1bits.WRERR = 0;
   840                           
   841                           ; BSR set to: 2
   842                           ;incstack = 0
   843   000802  0100               	movlb	0	; () banked
   844   000804  9F41               	bcf	65,7,b	;volsfr
   845                           
   846                           ;bootloader.c: 221:  TRISAbits.TRISA5 = 0;
   847   000806  9AC6               	bcf	198,5,c	;volatile
   848                           
   849                           ;bootloader.c: 222:  TRISBbits.TRISB5 = 1;
   850   000808  8AC7               	bsf	199,5,c	;volatile
   851                           
   852                           ;bootloader.c: 223:  TRISBbits.TRISB4 = 1;
   853   00080A  88C7               	bsf	199,4,c	;volatile
   854                           
   855                           ;bootloader.c: 224:  TRISCbits.TRISC3 = 0;
   856   00080C  96C8               	bcf	200,3,c	;volatile
   857                           
   858                           ;bootloader.c: 225:  TRISCbits.TRISC4 = 1;
   859   00080E  88C8               	bsf	200,4,c	;volatile
   860                           
   861                           ;bootloader.c: 226:  TRISCbits.TRISC5 = 0;
   862   000810  9AC8               	bcf	200,5,c	;volatile
   863                           
   864                           ;bootloader.c: 227:  LATAbits.LATA5 = 1;
   865   000812  8ABE               	bsf	190,5,c	;volatile
   866                           
   867                           ;bootloader.c: 230:  TRISCbits.TRISC0 = 0;
   868   000814  90C8               	bcf	200,0,c	;volatile
   869                           
   870                           ;bootloader.c: 231:  LATCbits.LATC0 = 0;
   871   000816  90C0               	bcf	192,0,c	;volatile
   872                           
   873                           ; BSR set to: 0
   874                           ;bootloader.c: 235:  TRISA |= 0x0F;
   875   000818  0E0F               	movlw	15
   876   00081A  12C6               	iorwf	198,f,c	;volatile
   877                           
   878                           ; BSR set to: 0
   879                           ;bootloader.c: 236:  TRISBbits.TRISB3 = 0;
   880   00081C  96C7               	bcf	199,3,c	;volatile
   881                           
   882                           ; BSR set to: 0
   883                           ;bootloader.c: 237:  LATBbits.LATB3 = 0;
   884   00081E  96BF               	bcf	191,3,c	;volatile
   885                           
   886                           ; BSR set to: 0
   887                           ;bootloader.c: 238:  TRISAbits.TRISA4 = 1;
   888   000820  88C6               	bsf	198,4,c	;volatile
   889                           
   890                           ; BSR set to: 0
   891                           ;bootloader.c: 239:  TRISBbits.TRISB1 = 1;
   892   000822  82C7               	bsf	199,1,c	;volatile
   893                           
   894                           ; BSR set to: 0
   895                           ;bootloader.c: 240:  INTCON0bits.INT1EDG = 0;
   896   000824  92D6               	bcf	214,1,c	;volatile
   897                           
   898                           ; BSR set to: 0
   899                           ;bootloader.c: 241:  IPR6bits.INT1IP = 0;
   900   000826  0103               	movlb	3	; () banked
   901   000828  9168               	bcf	104,0,b	;volatile
   902                           
   903                           ; BSR set to: 3
   904                           ;bootloader.c: 242:  PIR6bits.INT1IF = 0;
   905   00082A  90B4               	bcf	180,0,c	;volatile
   906                           
   907                           ; BSR set to: 3
   908                           ;bootloader.c: 243:  PIE6bits.INT1IE = 1;
   909   00082C  80A4               	bsf	164,0,c	;volatile
   910                           
   911                           ; BSR set to: 3
   912                           ;bootloader.c: 246:  TRISBbits.TRISB2 = 1;
   913   00082E  84C7               	bsf	199,2,c	;volatile
   914                           
   915                           ; BSR set to: 3
   916                           ;bootloader.c: 249:  TRISBbits,TRISB7 = 0;
   917   000830  50C7               	movf	199,w,c	;volatile
   918                           
   919                           ; BSR set to: 3
   920   000832  9EC7               	bcf	1223,7,c	;volatile
   921                           
   922                           ; BSR set to: 3
   923                           ;bootloader.c: 250:  TRISBbits,TRISB6 = 0;
   924   000834  50C7               	movf	199,w,c	;volatile
   925                           
   926                           ; BSR set to: 3
   927   000836  9CC7               	bcf	1223,6,c	;volatile
   928                           
   929                           ; BSR set to: 3
   930                           ;bootloader.c: 251:     LATBbits,LATB7 = 1;
   931   000838  50BF               	movf	191,w,c	;volatile
   932                           
   933                           ; BSR set to: 3
   934   00083A  8EBF               	bsf	1215,7,c	;volatile
   935                           
   936                           ; BSR set to: 3
   937                           ;bootloader.c: 252:     LATBbits,LATB6 = 1;
   938   00083C  50BF               	movf	191,w,c	;volatile
   939                           
   940                           ; BSR set to: 3
   941   00083E  8CBF               	bsf	1215,6,c	;volatile
   942                           
   943                           ; BSR set to: 3
   944                           ;bootloader.c: 257:  timeout = 32;
   945   000840  0E20               	movlw	32
   946   000842  6E29               	movwf	_timeout^(0+1280),c	;volatile
   947                           
   948                           ; BSR set to: 3
   949                           ;bootloader.c: 258:  IPR3bits.TMR0IP = 0;
   950   000844  9F65               	bcf	101,7,b	;volatile
   951                           
   952                           ; BSR set to: 3
   953                           ;bootloader.c: 261:  SPI1CON0 = 0x02;
   954   000846  0E02               	movlw	2
   955   000848  0100               	movlb	0	; () banked
   956   00084A  6F84               	movwf	132,b	;volatile
   957                           
   958                           ; BSR set to: 0
   959                           ;bootloader.c: 262:  SPI1CON1 = 0x40;
   960   00084C  0E40               	movlw	64
   961   00084E  6F85               	movwf	133,b	;volatile
   962                           
   963                           ; BSR set to: 0
   964                           ;bootloader.c: 263:  SPI1CON2 = 0x00;
   965   000850  0E00               	movlw	0
   966   000852  6F86               	movwf	134,b	;volatile
   967                           
   968                           ; BSR set to: 0
   969                           ;bootloader.c: 265:  SPI1BAUD = 0x02;
   970   000854  0E02               	movlw	2
   971   000856  6F89               	movwf	137,b	;volatile
   972                           
   973                           ; BSR set to: 0
   974                           ;bootloader.c: 269:  SPI1CLK = 0x00;
   975   000858  0E00               	movlw	0
   976   00085A  6F8C               	movwf	140,b	;volatile
   977                           
   978                           ; BSR set to: 0
   979                           ;bootloader.c: 270:  SPI1CON0bits.EN = 1;
   980   00085C  8F84               	bsf	132,7,b	;volatile
   981                           
   982                           ; BSR set to: 0
   983                           ;bootloader.c: 273:  INTCON0bits.IPEN = 1;
   984   00085E  8AD6               	bsf	214,5,c	;volatile
   985                           
   986                           ; BSR set to: 0
   987   000860  0012               	return		;funcret
   988   000862                     __end_of_pic_init:
   989                           	callstack 0
   990                           
   991 ;; *************** function _b_process *****************
   992 ;; Defined at:
   993 ;;		line 318 in file "bootloader.c"
   994 ;; Parameters:    Size  Location     Type
   995 ;;		None
   996 ;; Auto vars:     Size  Location     Type
   997 ;;  status          1   29[COMRAM] unsigned char 
   998 ;; Return value:  Size  Location     Type
   999 ;;                  1    wreg      void 
  1000 ;; Registers used:
  1001 ;;		wreg, fsr0l, fsr0h, fsr2l, fsr2h, status,2, status,0, tblptrl, tblptrh, tblptru, cstack
  1002 ;; Tracked objects:
  1003 ;;		On entry : 0/0
  1004 ;;		On exit  : 0/0
  1005 ;;		Unchanged: 0/0
  1006 ;; Data sizes:     COMRAM   BANK5   BANK6   BANK7   BANK8   BANK9  BANK10  BANK11  BANK12  BANK13  BANK14  BANK15  BANK1
      +6  BANK17  BANK18  BANK19  BANK20  BANK21  BANK22  BANK23  BANK24  BANK25  BANK26  BANK27  BANK28  BANK29  BANK30  BANK3
      +1  BANK32  BANK33  BANK34  BANK35  BANK36  BANK37  BANK38  BANK39  BANK40  BANK41  BANK42  BANK43  BANK44  BANK45  BANK4
      +6  BANK47  BANK48  BANK49  BANK50  BANK51  BANK52  BANK53  BANK54
  1007 ;;      Params:         0       0       0       0       0       0       0       0       0       0       0       0       
      +0       0       0       0       0       0       0       0       0       0       0       0       0       0       0       
      +0       0       0       0       0       0       0       0       0       0       0       0       0       0       0       
      +0       0       0       0       0       0       0       0       0
  1008 ;;      Locals:         1       0       0       0       0       0       0       0       0       0       0       0       
      +0       0       0       0       0       0       0       0       0       0       0       0       0       0       0       
      +0       0       0       0       0       0       0       0       0       0       0       0       0       0       0       
      +0       0       0       0       0       0       0       0       0
  1009 ;;      Temps:          8       0       0       0       0       0       0       0       0       0       0       0       
      +0       0       0       0       0       0       0       0       0       0       0       0       0       0       0       
      +0       0       0       0       0       0       0       0       0       0       0       0       0       0       0       
      +0       0       0       0       0       0       0       0       0
  1010 ;;      Totals:         9       0       0       0       0       0       0       0       0       0       0       0       
      +0       0       0       0       0       0       0       0       0       0       0       0       0       0       0       
      +0       0       0       0       0       0       0       0       0       0       0       0       0       0       0       
      +0       0       0       0       0       0       0       0       0
  1011 ;;Total ram usage:        9 bytes
  1012 ;; Hardware stack levels used: 1
  1013 ;; Hardware stack levels required when called: 7
  1014 ;; This function calls:
  1015 ;;		_b_last
  1016 ;;		_b_write_block
  1017 ;;		_do_write_ee
  1018 ;;		_erase_eeprom
  1019 ;;		_erase_flash
  1020 ;;		_read_byte
  1021 ;;		_update_status
  1022 ;;		_usart_put_short
  1023 ;;		_usart_puts2_r
  1024 ;;		_usart_send
  1025 ;; This function is called by:
  1026 ;;		_main
  1027 ;; This function uses a non-reentrant model
  1028 ;;
  1029                           
  1030                           	psect	text3
  1031   0000EE                     __ptext3:
  1032                           	callstack 0
  1033   0000EE                     _b_process:
  1034                           	callstack 119
  1035                           
  1036                           ;bootloader.c: 320:     uint8_t status = 0x00;
  1037                           
  1038                           ; BSR set to: 0
  1039                           ;incstack = 0
  1040   0000EE  0E00               	movlw	0
  1041   0000F0  6E1E               	movwf	b_process@status^(0+1280),c
  1042                           
  1043                           ;bootloader.c: 322:     flags &= ~(1 << 1);
  1044   0000F2  9238               	bcf	_flags^(0+1280),1,c	;volatile
  1045                           
  1046                           ;bootloader.c: 324:     BUFX[fsr2] = 0;
  1047   0000F4  0E00               	movlw	low _BUFX
  1048   0000F6  2425               	addwf	_fsr2^(0+1280),w,c
  1049   0000F8  6ED9               	movwf	fsr2l,c
  1050   0000FA  6ADA               	clrf	fsr2h,c
  1051   0000FC  0E07               	movlw	high _BUFX
  1052   0000FE  22DA               	addwfc	fsr2h,f,c
  1053   000100  6ADF               	clrf	indf2,c
  1054                           
  1055                           ;bootloader.c: 326:     usart_puts2_r(BUFX);
  1056   000102  0E00               	movlw	low _BUFX
  1057   000104  6E0D               	movwf	usart_puts2_r@str^(0+1280),c
  1058   000106  0E07               	movlw	high _BUFX
  1059   000108  6E0E               	movwf	(usart_puts2_r@str+1)^(0+1280),c
  1060   00010A  500D               	movf	usart_puts2_r@str^(0+1280),w,c
  1061   00010C  100E               	iorwf	(usart_puts2_r@str+1)^(0+1280),w,c
  1062   00010E  A4D8               	btfss	status,2,c
  1063   000110  0E20               	movlw	32
  1064   000112  6E0F               	movwf	(usart_puts2_r@str+2)^(0+1280),c
  1065   000114  ECE6  F005         	call	_usart_puts2_r	;wreg free
  1066                           
  1067                           ;bootloader.c: 331:     fsr2 = 0;
  1068   000118  0E00               	movlw	0
  1069   00011A  6E25               	movwf	_fsr2^(0+1280),c
  1070                           
  1071                           ;bootloader.c: 332:     if(BUFX[fsr2++] == ':')
  1072   00011C  2A25               	incf	_fsr2^(0+1280),f,c
  1073   00011E  0425               	decf	_fsr2^(0+1280),w,c
  1074   000120  6E16               	movwf	??_b_process^(0+1280),c
  1075   000122  6A17               	clrf	(??_b_process+1)^(0+1280),c
  1076   000124  0E00               	movlw	low _BUFX
  1077   000126  2416               	addwf	??_b_process^(0+1280),w,c
  1078   000128  6ED9               	movwf	fsr2l,c
  1079   00012A  0E07               	movlw	high _BUFX
  1080   00012C  2017               	addwfc	(??_b_process+1)^(0+1280),w,c
  1081   00012E  6EDA               	movwf	fsr2h,c
  1082   000130  0E3A               	movlw	58
  1083   000132  18DE               	xorwf	postinc2,w,c
  1084   000134  A4D8               	btfss	status,2,c
  1085   000136  D17C               	goto	l2193
  1086                           
  1087                           ;bootloader.c: 333:     {;bootloader.c: 337:         count = read_byte();
  1088   000138  ECF6  F004         	call	_read_byte	;wreg free
  1089   00013C  6E27               	movwf	_count^(0+1280),c
  1090                           
  1091                           ;bootloader.c: 338:         checksum = count;
  1092   00013E  C527  F528         	movff	_count,_checksum
  1093                           
  1094                           ;bootloader.c: 339:         count += 4;
  1095   000142  0E04               	movlw	4
  1096   000144  2627               	addwf	_count^(0+1280),f,c
  1097                           
  1098                           ;bootloader.c: 340:         while(count--)
  1099   000146  D003               	goto	l2107
  1100   000148                     l2105:
  1101                           
  1102                           ;bootloader.c: 341:             checksum += read_byte();
  1103   000148  ECF6  F004         	call	_read_byte	;wreg free
  1104   00014C  2628               	addwf	_checksum^(0+1280),f,c
  1105   00014E                     l2107:
  1106                           
  1107                           ;bootloader.c: 340:         while(count--)
  1108   00014E  0627               	decf	_count^(0+1280),f,c
  1109   000150  2827               	incf	_count^(0+1280),w,c
  1110   000152  A4D8               	btfss	status,2,c
  1111   000154  D7F9               	goto	l2105
  1112                           
  1113                           ;bootloader.c: 342:         if(checksum == 0)
  1114   000156  5028               	movf	_checksum^(0+1280),w,c
  1115   000158  A4D8               	btfss	status,2,c
  1116   00015A  D1AD               	goto	l2211
  1117                           
  1118                           ;bootloader.c: 343:         {;bootloader.c: 347:             fsr2 = 1;
  1119   00015C  0E01               	movlw	1
  1120   00015E  6E25               	movwf	_fsr2^(0+1280),c
  1121                           
  1122                           ;bootloader.c: 348:             count = read_byte();
  1123   000160  ECF6  F004         	call	_read_byte	;wreg free
  1124   000164  6E27               	movwf	_count^(0+1280),c
  1125                           
  1126                           ;bootloader.c: 349:             addr &= 0xFFFF0000;
  1127   000166  0E00               	movlw	0
  1128   000168  161F               	andwf	_addr^(0+1280),f,c
  1129   00016A  0E00               	movlw	0
  1130   00016C  1620               	andwf	(_addr+1)^(0+1280),f,c
  1131   00016E  0EFF               	movlw	255
  1132   000170  1621               	andwf	(_addr+2)^(0+1280),f,c
  1133   000172  0EFF               	movlw	255
  1134   000174  1622               	andwf	(_addr+3)^(0+1280),f,c
  1135                           
  1136                           ;bootloader.c: 350:             addr |= (uint32_t)read_byte() << 8;
  1137   000176  ECF6  F004         	call	_read_byte	;wreg free
  1138   00017A  6E16               	movwf	??_b_process^(0+1280),c
  1139   00017C  C516  F517         	movff	??_b_process,??_b_process+1
  1140   000180  6A18               	clrf	(??_b_process+2)^(0+1280),c
  1141   000182  6A19               	clrf	(??_b_process+3)^(0+1280),c
  1142   000184  6A1A               	clrf	(??_b_process+4)^(0+1280),c
  1143   000186  C519  F51A         	movff	??_b_process+3,??_b_process+4
  1144   00018A  C518  F519         	movff	??_b_process+2,??_b_process+3
  1145   00018E  C517  F518         	movff	??_b_process+1,??_b_process+2
  1146   000192  6A17               	clrf	(??_b_process+1)^(0+1280),c
  1147   000194  5017               	movf	(??_b_process+1)^(0+1280),w,c
  1148   000196  121F               	iorwf	_addr^(0+1280),f,c
  1149   000198  5018               	movf	(??_b_process+2)^(0+1280),w,c
  1150   00019A  1220               	iorwf	(_addr+1)^(0+1280),f,c
  1151   00019C  5019               	movf	(??_b_process+3)^(0+1280),w,c
  1152   00019E  1221               	iorwf	(_addr+2)^(0+1280),f,c
  1153   0001A0  501A               	movf	(??_b_process+4)^(0+1280),w,c
  1154   0001A2  1222               	iorwf	(_addr+3)^(0+1280),f,c
  1155                           
  1156                           ;bootloader.c: 351:             addr |= (uint32_t)read_byte();
  1157   0001A4  ECF6  F004         	call	_read_byte	;wreg free
  1158   0001A8  6E16               	movwf	??_b_process^(0+1280),c
  1159   0001AA  5016               	movf	??_b_process^(0+1280),w,c
  1160   0001AC  121F               	iorwf	_addr^(0+1280),f,c
  1161                           
  1162                           ;bootloader.c: 352:             type = read_byte();
  1163   0001AE  ECF6  F004         	call	_read_byte	;wreg free
  1164   0001B2  6E26               	movwf	_type^(0+1280),c
  1165                           
  1166                           ;bootloader.c: 353:             switch(type & 7)
  1167   0001B4  D16A               	goto	l2209
  1168   0001B6                     l536:
  1169                           
  1170                           ;bootloader.c: 360:                 if(!(flags & (1 << 2)))
  1171   0001B6  B438               	btfsc	_flags^(0+1280),2,c	;volatile
  1172   0001B8  D0FD               	goto	l2177
  1173                           
  1174                           ;bootloader.c: 361:                 {;bootloader.c: 362:                     if(((addr >
      +                          > 24) & 0xFF) == 0x00)
  1175   0001BA  C51F  F516         	movff	_addr,??_b_process
  1176   0001BE  C520  F517         	movff	_addr+1,??_b_process+1
  1177   0001C2  C521  F518         	movff	_addr+2,??_b_process+2
  1178   0001C6  C522  F519         	movff	_addr+3,??_b_process+3
  1179   0001CA  0E19               	movlw	25
  1180   0001CC  D005               	goto	u960
  1181   0001CE                     u965:
  1182   0001CE  90D8               	bcf	status,0,c
  1183   0001D0  3219               	rrcf	(??_b_process+3)^(0+1280),f,c
  1184   0001D2  3218               	rrcf	(??_b_process+2)^(0+1280),f,c
  1185   0001D4  3217               	rrcf	(??_b_process+1)^(0+1280),f,c
  1186   0001D6  3216               	rrcf	??_b_process^(0+1280),f,c
  1187   0001D8                     u960:
  1188   0001D8  2EE8               	decfsz	wreg,f,c
  1189   0001DA  D7F9               	goto	u965
  1190   0001DC  5016               	movf	??_b_process^(0+1280),w,c
  1191   0001DE  0900               	iorlw	0
  1192   0001E0  A4D8               	btfss	status,2,c
  1193   0001E2  D0E8               	goto	l2177
  1194                           
  1195                           ;bootloader.c: 363:                     {;bootloader.c: 365:                         if(
      +                          ((addr >> 16) & 0xFE) == 0x00)
  1196   0001E4  C51F  F516         	movff	_addr,??_b_process
  1197   0001E8  C520  F517         	movff	_addr+1,??_b_process+1
  1198   0001EC  C521  F518         	movff	_addr+2,??_b_process+2
  1199   0001F0  C522  F519         	movff	_addr+3,??_b_process+3
  1200   0001F4  0E11               	movlw	17
  1201   0001F6  D005               	goto	u980
  1202   0001F8                     u985:
  1203   0001F8  90D8               	bcf	status,0,c
  1204   0001FA  3219               	rrcf	(??_b_process+3)^(0+1280),f,c
  1205   0001FC  3218               	rrcf	(??_b_process+2)^(0+1280),f,c
  1206   0001FE  3217               	rrcf	(??_b_process+1)^(0+1280),f,c
  1207   000200  3216               	rrcf	??_b_process^(0+1280),f,c
  1208   000202                     u980:
  1209   000202  2EE8               	decfsz	wreg,f,c
  1210   000204  D7F9               	goto	u985
  1211   000206  0EFE               	movlw	254
  1212   000208  1416               	andwf	??_b_process^(0+1280),w,c
  1213   00020A  6E1A               	movwf	(??_b_process+4)^(0+1280),c
  1214   00020C  0E00               	movlw	0
  1215   00020E  1417               	andwf	(??_b_process+1)^(0+1280),w,c
  1216   000210  6E1B               	movwf	(??_b_process+5)^(0+1280),c
  1217   000212  0E00               	movlw	0
  1218   000214  1418               	andwf	(??_b_process+2)^(0+1280),w,c
  1219   000216  6E1C               	movwf	(??_b_process+6)^(0+1280),c
  1220   000218  0E00               	movlw	0
  1221   00021A  1419               	andwf	(??_b_process+3)^(0+1280),w,c
  1222   00021C  6E1D               	movwf	(??_b_process+7)^(0+1280),c
  1223   00021E  501A               	movf	(??_b_process+4)^(0+1280),w,c
  1224   000220  101B               	iorwf	(??_b_process+5)^(0+1280),w,c
  1225   000222  101C               	iorwf	(??_b_process+6)^(0+1280),w,c
  1226   000224  101D               	iorwf	(??_b_process+7)^(0+1280),w,c
  1227   000226  A4D8               	btfss	status,2,c
  1228   000228  D04F               	goto	l2157
  1229                           
  1230                           ;bootloader.c: 366:                         {;bootloader.c: 369:                        
      +                               if(tblptr <= (uint24_t)addr)
  1231   00022A  5031               	movf	_tblptr^(0+1280),w,c
  1232   00022C  5C1F               	subwf	_addr^(0+1280),w,c
  1233   00022E  5032               	movf	(_tblptr+1)^(0+1280),w,c
  1234   000230  5820               	subwfb	(_addr+1)^(0+1280),w,c
  1235   000232  5033               	movf	(_tblptr+2)^(0+1280),w,c
  1236   000234  5821               	subwfb	(_addr+2)^(0+1280),w,c
  1237   000236  B0D8               	btfsc	status,0,c
  1238   000238  D040               	goto	l2151
  1239   00023A  D043               	goto	l2153
  1240   00023C                     l2131:
  1241                           
  1242                           ;bootloader.c: 372:                                 {;bootloader.c: 373:                
      +                                               if(tblptr < (uint24_t)addr)
  1243   00023C  501F               	movf	_addr^(0+1280),w,c
  1244   00023E  5C31               	subwf	_tblptr^(0+1280),w,c
  1245   000240  5020               	movf	(_addr+1)^(0+1280),w,c
  1246   000242  5832               	subwfb	(_tblptr+1)^(0+1280),w,c
  1247   000244  5021               	movf	(_addr+2)^(0+1280),w,c
  1248   000246  5833               	subwfb	(_tblptr+2)^(0+1280),w,c
  1249   000248  B0D8               	btfsc	status,0,c
  1250   00024A  D00F               	goto	l2137
  1251                           
  1252                           ;bootloader.c: 374:                                     {;bootloader.c: 376:            
      +                                                       *(uint8_t *)((0x3700U) + (tblptr++ & (0x100 - 1))) = 0xFF;
  1253   00024C  5031               	movf	_tblptr^(0+1280),w,c
  1254   00024E  EE2D F300          	lfsr	2,14080
  1255   000252  26D9               	addwf	fsr2l,f,c
  1256   000254  0E00               	movlw	0
  1257   000256  22DA               	addwfc	fsr2h,f,c
  1258   000258  0EFF               	movlw	255
  1259   00025A  6EDF               	movwf	indf2,c
  1260   00025C  0E01               	movlw	1
  1261   00025E  2631               	addwf	_tblptr^(0+1280),f,c
  1262   000260  0E00               	movlw	0
  1263   000262  2232               	addwfc	(_tblptr+1)^(0+1280),f,c
  1264   000264  0E00               	movlw	0
  1265   000266  2233               	addwfc	(_tblptr+2)^(0+1280),f,c
  1266                           
  1267                           ;bootloader.c: 377:                                     }
  1268   000268  D019               	goto	l2147
  1269   00026A                     l2137:
  1270                           
  1271                           ;bootloader.c: 379:                                     {;bootloader.c: 381:            
      +                                                       *(uint8_t *)((0x3700U) + (tblptr++ & (0x100 - 1))) = read_b
      +                          yte();
  1272   00026A  ECF6  F004         	call	_read_byte	;wreg free
  1273   00026E  6E16               	movwf	??_b_process^(0+1280),c
  1274   000270  5031               	movf	_tblptr^(0+1280),w,c
  1275   000272  EE2D F300          	lfsr	2,14080
  1276   000276  26D9               	addwf	fsr2l,f,c
  1277   000278  0E00               	movlw	0
  1278   00027A  22DA               	addwfc	fsr2h,f,c
  1279   00027C  C516  F4DF         	movff	??_b_process,indf2
  1280   000280  0E01               	movlw	1
  1281   000282  2631               	addwf	_tblptr^(0+1280),f,c
  1282   000284  0E00               	movlw	0
  1283   000286  2232               	addwfc	(_tblptr+1)^(0+1280),f,c
  1284   000288  0E00               	movlw	0
  1285   00028A  2233               	addwfc	(_tblptr+2)^(0+1280),f,c
  1286                           
  1287                           ;bootloader.c: 382:                                         count--;
  1288   00028C  0627               	decf	_count^(0+1280),f,c
  1289                           
  1290                           ;bootloader.c: 383:                                         flags |= (1 << 3);
  1291   00028E  8638               	bsf	_flags^(0+1280),3,c	;volatile
  1292                           
  1293                           ;bootloader.c: 384:                                         addr++;
  1294   000290  0E01               	movlw	1
  1295   000292  261F               	addwf	_addr^(0+1280),f,c
  1296   000294  0E00               	movlw	0
  1297   000296  2220               	addwfc	(_addr+1)^(0+1280),f,c
  1298   000298  2221               	addwfc	(_addr+2)^(0+1280),f,c
  1299   00029A  2222               	addwfc	(_addr+3)^(0+1280),f,c
  1300   00029C                     l2147:
  1301                           
  1302                           ;bootloader.c: 387:                                     if((tblptr & (0x100 - 1)) == 0)
  1303   00029C  0EFF               	movlw	255
  1304   00029E  1431               	andwf	_tblptr^(0+1280),w,c
  1305   0002A0  6E16               	movwf	??_b_process^(0+1280),c
  1306   0002A2  0E00               	movlw	0
  1307   0002A4  1432               	andwf	(_tblptr+1)^(0+1280),w,c
  1308   0002A6  6E17               	movwf	(??_b_process+1)^(0+1280),c
  1309   0002A8  0E00               	movlw	0
  1310   0002AA  1433               	andwf	(_tblptr+2)^(0+1280),w,c
  1311   0002AC  6E18               	movwf	(??_b_process+2)^(0+1280),c
  1312   0002AE  5016               	movf	??_b_process^(0+1280),w,c
  1313   0002B0  1017               	iorwf	(??_b_process+1)^(0+1280),w,c
  1314   0002B2  1018               	iorwf	(??_b_process+2)^(0+1280),w,c
  1315   0002B4  B4D8               	btfsc	status,2,c
  1316                           
  1317                           ;bootloader.c: 388:                                         b_write_block();
  1318   0002B6  EC51  F003         	call	_b_write_block	;wreg free
  1319   0002BA                     l2151:
  1320                           
  1321                           ;bootloader.c: 371:                                 while(count)
  1322   0002BA  5027               	movf	_count^(0+1280),w,c
  1323   0002BC  B4D8               	btfsc	status,2,c
  1324   0002BE  D0FD               	goto	l570
  1325   0002C0  D7BD               	goto	l2131
  1326   0002C2                     l2153:
  1327                           
  1328                           ;bootloader.c: 392:                             {;bootloader.c: 393:                    
      +                                       flags |= 1 << 2;
  1329   0002C2  8438               	bsf	_flags^(0+1280),2,c	;volatile
  1330                           
  1331                           ;bootloader.c: 394:                                 status = 0x05;
  1332   0002C4  0E05               	movlw	5
  1333   0002C6  D0F8               	goto	L1
  1334   0002C8                     l2157:
  1335                           
  1336                           ;bootloader.c: 398:                         {;bootloader.c: 399:                        
      +                               b_last();
  1337   0002C8  EC18  F005         	call	_b_last	;wreg free
  1338                           
  1339                           ;bootloader.c: 401:                             if(((addr >> 16) & 0xFF) == ((0x380000U)
      +                           >> 16))
  1340   0002CC  C51F  F516         	movff	_addr,??_b_process
  1341   0002D0  C520  F517         	movff	_addr+1,??_b_process+1
  1342   0002D4  C521  F518         	movff	_addr+2,??_b_process+2
  1343   0002D8  C522  F519         	movff	_addr+3,??_b_process+3
  1344   0002DC  0E11               	movlw	17
  1345   0002DE  D005               	goto	u1040
  1346   0002E0                     u1045:
  1347   0002E0  90D8               	bcf	status,0,c
  1348   0002E2  3219               	rrcf	(??_b_process+3)^(0+1280),f,c
  1349   0002E4  3218               	rrcf	(??_b_process+2)^(0+1280),f,c
  1350   0002E6  3217               	rrcf	(??_b_process+1)^(0+1280),f,c
  1351   0002E8  3216               	rrcf	??_b_process^(0+1280),f,c
  1352   0002EA                     u1040:
  1353   0002EA  2EE8               	decfsz	wreg,f,c
  1354   0002EC  D7F9               	goto	u1045
  1355   0002EE  0EFF               	movlw	255
  1356   0002F0  1416               	andwf	??_b_process^(0+1280),w,c
  1357   0002F2  6E1A               	movwf	(??_b_process+4)^(0+1280),c
  1358   0002F4  0E00               	movlw	0
  1359   0002F6  1417               	andwf	(??_b_process+1)^(0+1280),w,c
  1360   0002F8  6E1B               	movwf	(??_b_process+5)^(0+1280),c
  1361   0002FA  0E00               	movlw	0
  1362   0002FC  1418               	andwf	(??_b_process+2)^(0+1280),w,c
  1363   0002FE  6E1C               	movwf	(??_b_process+6)^(0+1280),c
  1364   000300  0E00               	movlw	0
  1365   000302  1419               	andwf	(??_b_process+3)^(0+1280),w,c
  1366   000304  6E1D               	movwf	(??_b_process+7)^(0+1280),c
  1367   000306  0E38               	movlw	56
  1368   000308  181A               	xorwf	(??_b_process+4)^(0+1280),w,c
  1369   00030A  101B               	iorwf	(??_b_process+5)^(0+1280),w,c
  1370   00030C  101C               	iorwf	(??_b_process+6)^(0+1280),w,c
  1371   00030E  101D               	iorwf	(??_b_process+7)^(0+1280),w,c
  1372   000310  A4D8               	btfss	status,2,c
  1373   000312  D050               	goto	l2177
  1374                           
  1375                           ;bootloader.c: 402:                             {;bootloader.c: 406:                    
      +                                       usart_put_short(addr); usart_send('-'); usart_put_short(addr + count - 1); 
      +                          usart_send('\r'); usart_send('\n');
  1376   000314  C51F  F50C         	movff	_addr,usart_put_short@x
  1377   000318  C520  F50D         	movff	_addr+1,usart_put_short@x+1
  1378   00031C  EC1F  F006         	call	_usart_put_short	;wreg free
  1379   000320  0E2D               	movlw	45
  1380   000322  ECA8  F005         	call	_usart_send
  1381   000326  5027               	movf	_count^(0+1280),w,c
  1382   000328  241F               	addwf	_addr^(0+1280),w,c
  1383   00032A  6E16               	movwf	??_b_process^(0+1280),c
  1384   00032C  0E00               	movlw	0
  1385   00032E  2020               	addwfc	(_addr+1)^(0+1280),w,c
  1386   000330  6E17               	movwf	(??_b_process+1)^(0+1280),c
  1387   000332  0EFF               	movlw	255
  1388   000334  2416               	addwf	??_b_process^(0+1280),w,c
  1389   000336  6E0C               	movwf	usart_put_short@x^(0+1280),c
  1390   000338  0EFF               	movlw	255
  1391   00033A  2017               	addwfc	(??_b_process+1)^(0+1280),w,c
  1392   00033C  6E0D               	movwf	(usart_put_short@x+1)^(0+1280),c
  1393   00033E  EC1F  F006         	call	_usart_put_short	;wreg free
  1394   000342  0E0D               	movlw	13
  1395   000344  ECA8  F005         	call	_usart_send
  1396   000348  0E0A               	movlw	10
  1397   00034A  ECA8  F005         	call	_usart_send
  1398                           
  1399                           ;bootloader.c: 408:                                 if(((addr >> 8) & 0xFC) == 0)
  1400   00034E  0EFC               	movlw	252
  1401   000350  C51F  F516         	movff	_addr,??_b_process
  1402   000354  C520  F517         	movff	_addr+1,??_b_process+1
  1403   000358  C521  F518         	movff	_addr+2,??_b_process+2
  1404   00035C  C522  F519         	movff	_addr+3,??_b_process+3
  1405   000360  C517  F516         	movff	??_b_process+1,??_b_process
  1406   000364  C518  F517         	movff	??_b_process+2,??_b_process+1
  1407   000368  C519  F518         	movff	??_b_process+3,??_b_process+2
  1408   00036C  6A19               	clrf	(??_b_process+3)^(0+1280),c
  1409   00036E  1416               	andwf	??_b_process^(0+1280),w,c
  1410   000370  6E1A               	movwf	(??_b_process+4)^(0+1280),c
  1411   000372  0E00               	movlw	0
  1412   000374  1417               	andwf	(??_b_process+1)^(0+1280),w,c
  1413   000376  6E1B               	movwf	(??_b_process+5)^(0+1280),c
  1414   000378  0E00               	movlw	0
  1415   00037A  1418               	andwf	(??_b_process+2)^(0+1280),w,c
  1416   00037C  6E1C               	movwf	(??_b_process+6)^(0+1280),c
  1417   00037E  0E00               	movlw	0
  1418   000380  1419               	andwf	(??_b_process+3)^(0+1280),w,c
  1419   000382  6E1D               	movwf	(??_b_process+7)^(0+1280),c
  1420   000384  501A               	movf	(??_b_process+4)^(0+1280),w,c
  1421   000386  101B               	iorwf	(??_b_process+5)^(0+1280),w,c
  1422   000388  101C               	iorwf	(??_b_process+6)^(0+1280),w,c
  1423   00038A  101D               	iorwf	(??_b_process+7)^(0+1280),w,c
  1424   00038C  B4D8               	btfsc	status,2,c
  1425   00038E  D00C               	goto	l2173
  1426   000390  D00F               	goto	l2175
  1427   000392                     l2167:
  1428                           
  1429                           ;bootloader.c: 411:                                     {;bootloader.c: 412:            
      +                                                       do_write_ee(read_byte());
  1430   000392  ECF6  F004         	call	_read_byte	;wreg free
  1431   000396  EC3A  F005         	call	_do_write_ee
  1432                           
  1433                           ;bootloader.c: 413:                                         addr++;
  1434   00039A  0E01               	movlw	1
  1435   00039C  261F               	addwf	_addr^(0+1280),f,c
  1436   00039E  0E00               	movlw	0
  1437   0003A0  2220               	addwfc	(_addr+1)^(0+1280),f,c
  1438   0003A2  2221               	addwfc	(_addr+2)^(0+1280),f,c
  1439   0003A4  2222               	addwfc	(_addr+3)^(0+1280),f,c
  1440                           
  1441                           ;bootloader.c: 414:                                         count--;
  1442   0003A6  0627               	decf	_count^(0+1280),f,c
  1443   0003A8                     l2173:
  1444                           
  1445                           ;bootloader.c: 410:                                     while(count)
  1446   0003A8  5027               	movf	_count^(0+1280),w,c
  1447   0003AA  B4D8               	btfsc	status,2,c
  1448   0003AC  D086               	goto	l570
  1449   0003AE  D7F1               	goto	l2167
  1450   0003B0                     l2175:
  1451                           
  1452                           ;bootloader.c: 418:                                     status = 0x01;
  1453   0003B0  0E01               	movlw	1
  1454   0003B2  D082               	goto	L1
  1455   0003B4                     l2177:
  1456                           
  1457                           ;bootloader.c: 421:                                 status = 0x02;
  1458   0003B4  0E02               	movlw	2
  1459   0003B6  D080               	goto	L1
  1460   0003B8                     l2183:
  1461                           
  1462                           ;bootloader.c: 432:                 b_last();
  1463   0003B8  EC18  F005         	call	_b_last	;wreg free
  1464   0003BC  00FF               	reset		;# 
  1465                           
  1466                           ;bootloader.c: 438:                 break;
  1467   0003BE  D07D               	goto	l570
  1468   0003C0                     l2185:
  1469                           
  1470                           ;bootloader.c: 449:                 if(count == 2)
  1471   0003C0  0E02               	movlw	2
  1472   0003C2  1827               	xorwf	_count^(0+1280),w,c
  1473   0003C4  A4D8               	btfss	status,2,c
  1474   0003C6  D034               	goto	l2193
  1475                           
  1476                           ;bootloader.c: 450:                 {;bootloader.c: 451:                     addr &= 0x0
      +                          000FFFF;
  1477   0003C8  0EFF               	movlw	255
  1478   0003CA  161F               	andwf	_addr^(0+1280),f,c
  1479   0003CC  0EFF               	movlw	255
  1480   0003CE  1620               	andwf	(_addr+1)^(0+1280),f,c
  1481   0003D0  0E00               	movlw	0
  1482   0003D2  1621               	andwf	(_addr+2)^(0+1280),f,c
  1483   0003D4  0E00               	movlw	0
  1484   0003D6  1622               	andwf	(_addr+3)^(0+1280),f,c
  1485                           
  1486                           ;bootloader.c: 452:                     addr |= (uint32_t)read_byte() << 24;
  1487   0003D8  ECF6  F004         	call	_read_byte	;wreg free
  1488   0003DC  6E16               	movwf	??_b_process^(0+1280),c
  1489   0003DE  C516  F517         	movff	??_b_process,??_b_process+1
  1490   0003E2  6A18               	clrf	(??_b_process+2)^(0+1280),c
  1491   0003E4  6A19               	clrf	(??_b_process+3)^(0+1280),c
  1492   0003E6  6A1A               	clrf	(??_b_process+4)^(0+1280),c
  1493   0003E8  C517  F51A         	movff	??_b_process+1,??_b_process+4
  1494   0003EC  6A19               	clrf	(??_b_process+3)^(0+1280),c
  1495   0003EE  6A18               	clrf	(??_b_process+2)^(0+1280),c
  1496   0003F0  6A17               	clrf	(??_b_process+1)^(0+1280),c
  1497   0003F2  5017               	movf	(??_b_process+1)^(0+1280),w,c
  1498   0003F4  121F               	iorwf	_addr^(0+1280),f,c
  1499   0003F6  5018               	movf	(??_b_process+2)^(0+1280),w,c
  1500   0003F8  1220               	iorwf	(_addr+1)^(0+1280),f,c
  1501   0003FA  5019               	movf	(??_b_process+3)^(0+1280),w,c
  1502   0003FC  1221               	iorwf	(_addr+2)^(0+1280),f,c
  1503   0003FE  501A               	movf	(??_b_process+4)^(0+1280),w,c
  1504   000400  1222               	iorwf	(_addr+3)^(0+1280),f,c
  1505                           
  1506                           ;bootloader.c: 453:                     addr |= (uint32_t)read_byte() << 16;
  1507   000402  ECF6  F004         	call	_read_byte	;wreg free
  1508   000406  6E16               	movwf	??_b_process^(0+1280),c
  1509   000408  C516  F517         	movff	??_b_process,??_b_process+1
  1510   00040C  6A18               	clrf	(??_b_process+2)^(0+1280),c
  1511   00040E  6A19               	clrf	(??_b_process+3)^(0+1280),c
  1512   000410  6A1A               	clrf	(??_b_process+4)^(0+1280),c
  1513   000412  C518  F51A         	movff	??_b_process+2,??_b_process+4
  1514   000416  C517  F519         	movff	??_b_process+1,??_b_process+3
  1515   00041A  6A18               	clrf	(??_b_process+2)^(0+1280),c
  1516   00041C  6A17               	clrf	(??_b_process+1)^(0+1280),c
  1517   00041E  5017               	movf	(??_b_process+1)^(0+1280),w,c
  1518   000420  121F               	iorwf	_addr^(0+1280),f,c
  1519   000422  5018               	movf	(??_b_process+2)^(0+1280),w,c
  1520   000424  1220               	iorwf	(_addr+1)^(0+1280),f,c
  1521   000426  5019               	movf	(??_b_process+3)^(0+1280),w,c
  1522   000428  1221               	iorwf	(_addr+2)^(0+1280),f,c
  1523   00042A  501A               	movf	(??_b_process+4)^(0+1280),w,c
  1524   00042C  1222               	iorwf	(_addr+3)^(0+1280),f,c
  1525                           
  1526                           ;bootloader.c: 454:                 }
  1527   00042E  D045               	goto	l570
  1528   000430                     l2193:
  1529                           
  1530                           ;bootloader.c: 456:                     status = 0x04;
  1531   000430  0E04               	movlw	4
  1532   000432  D042               	goto	L1
  1533   000434                     l2195:
  1534                           
  1535                           ;bootloader.c: 463:                 if(((addr >> 8) & 0xFF) == 0xFF)
  1536   000434  0EFF               	movlw	255
  1537   000436  C51F  F516         	movff	_addr,??_b_process
  1538   00043A  C520  F517         	movff	_addr+1,??_b_process+1
  1539   00043E  C521  F518         	movff	_addr+2,??_b_process+2
  1540   000442  C522  F519         	movff	_addr+3,??_b_process+3
  1541   000446  C517  F516         	movff	??_b_process+1,??_b_process
  1542   00044A  C518  F517         	movff	??_b_process+2,??_b_process+1
  1543   00044E  C519  F518         	movff	??_b_process+3,??_b_process+2
  1544   000452  6A19               	clrf	(??_b_process+3)^(0+1280),c
  1545   000454  1416               	andwf	??_b_process^(0+1280),w,c
  1546   000456  6E1A               	movwf	(??_b_process+4)^(0+1280),c
  1547   000458  0E00               	movlw	0
  1548   00045A  1417               	andwf	(??_b_process+1)^(0+1280),w,c
  1549   00045C  6E1B               	movwf	(??_b_process+5)^(0+1280),c
  1550   00045E  0E00               	movlw	0
  1551   000460  1418               	andwf	(??_b_process+2)^(0+1280),w,c
  1552   000462  6E1C               	movwf	(??_b_process+6)^(0+1280),c
  1553   000464  0E00               	movlw	0
  1554   000466  1419               	andwf	(??_b_process+3)^(0+1280),w,c
  1555   000468  6E1D               	movwf	(??_b_process+7)^(0+1280),c
  1556   00046A  281A               	incf	(??_b_process+4)^(0+1280),w,c
  1557   00046C  101B               	iorwf	(??_b_process+5)^(0+1280),w,c
  1558   00046E  101C               	iorwf	(??_b_process+6)^(0+1280),w,c
  1559   000470  101D               	iorwf	(??_b_process+7)^(0+1280),w,c
  1560   000472  A4D8               	btfss	status,2,c
  1561   000474  D7DD               	goto	l2193
  1562                           
  1563                           ;bootloader.c: 464:                 {;bootloader.c: 465:                     if((addr & 
      +                          0xFF) == 0)
  1564   000476  501F               	movf	_addr^(0+1280),w,c
  1565   000478  0900               	iorlw	0
  1566   00047A  A4D8               	btfss	status,2,c
  1567   00047C  D003               	goto	l2201
  1568                           
  1569                           ;bootloader.c: 466:                         erase_flash();
  1570   00047E  EC5E  F004         	call	_erase_flash	;wreg free
  1571   000482  D01B               	goto	l570
  1572   000484                     l2201:
  1573                           
  1574                           ;bootloader.c: 468:                         erase_eeprom();
  1575   000484  EC86  F004         	call	_erase_eeprom	;wreg free
  1576   000488  D018               	goto	l570
  1577   00048A                     l2209:
  1578   00048A  5026               	movf	_type^(0+1280),w,c
  1579   00048C  0B07               	andlw	7
  1580   00048E  6E16               	movwf	??_b_process^(0+1280),c
  1581   000490  6A17               	clrf	(??_b_process+1)^(0+1280),c
  1582                           
  1583                           ; Switch on 2 bytes has been partitioned into a top level switch of size 1, and 1 sub-sw
      +                          itches
  1584                           ; Switch size 1, requested type "simple"
  1585                           ; Number of cases is 1, Range of values is 0 to 0
  1586                           ; switch strategies available:
  1587                           ; Name         Instructions Cycles
  1588                           ; simple_byte            4     3 (average)
  1589                           ;	Chosen strategy is simple_byte
  1590   000492  5017               	movf	(??_b_process+1)^(0+1280),w,c
  1591   000494  0A00               	xorlw	0	; case 0
  1592   000496  A4D8               	btfss	status,2,c
  1593   000498  D78D               	goto	l2177
  1594                           
  1595                           ; Switch size 1, requested type "simple"
  1596                           ; Number of cases is 4, Range of values is 0 to 6
  1597                           ; switch strategies available:
  1598                           ; Name         Instructions Cycles
  1599                           ; simple_byte           13     7 (average)
  1600                           ;	Chosen strategy is simple_byte
  1601   00049A  5016               	movf	??_b_process^(0+1280),w,c
  1602   00049C  0A00               	xorlw	0	; case 0
  1603   00049E  B4D8               	btfsc	status,2,c
  1604   0004A0  D68A               	goto	l536
  1605   0004A2  0A01               	xorlw	1	; case 1
  1606   0004A4  B4D8               	btfsc	status,2,c
  1607   0004A6  D788               	goto	l2183
  1608   0004A8  0A05               	xorlw	5	; case 4
  1609   0004AA  B4D8               	btfsc	status,2,c
  1610   0004AC  D789               	goto	l2185
  1611   0004AE  0A02               	xorlw	2	; case 6
  1612   0004B0  B4D8               	btfsc	status,2,c
  1613   0004B2  D7C0               	goto	l2195
  1614   0004B4  D77F               	goto	l2177
  1615   0004B6                     l2211:
  1616                           
  1617                           ;bootloader.c: 480:             status = 0x03;
  1618   0004B6  0E03               	movlw	3
  1619   0004B8                     L1:
  1620   0004B8  6E1E               	movwf	b_process@status^(0+1280),c
  1621   0004BA                     l570:
  1622                           
  1623                           ;bootloader.c: 485:     fsr2 = 0;
  1624   0004BA  0E00               	movlw	0
  1625   0004BC  6E25               	movwf	_fsr2^(0+1280),c
  1626                           
  1627                           ;bootloader.c: 486:     update_status(0x40 | status);
  1628   0004BE  501E               	movf	b_process@status^(0+1280),w,c
  1629   0004C0  0940               	iorlw	64
  1630   0004C2  ECD7  F005         	call	_update_status
  1631   0004C6  0012               	return		;funcret
  1632   0004C8                     __end_of_b_process:
  1633                           	callstack 0
  1634                           
  1635 ;; *************** function _usart_put_short *****************
  1636 ;; Defined at:
  1637 ;;		line 226 in file "serial.c"
  1638 ;; Parameters:    Size  Location     Type
  1639 ;;  x               2   11[COMRAM] short 
  1640 ;; Auto vars:     Size  Location     Type
  1641 ;;		None
  1642 ;; Return value:  Size  Location     Type
  1643 ;;                  1    wreg      void 
  1644 ;; Registers used:
  1645 ;;		wreg, fsr2l, fsr2h, status,2, status,0, cstack
  1646 ;; Tracked objects:
  1647 ;;		On entry : 0/0
  1648 ;;		On exit  : 0/0
  1649 ;;		Unchanged: 0/0
  1650 ;; Data sizes:     COMRAM   BANK5   BANK6   BANK7   BANK8   BANK9  BANK10  BANK11  BANK12  BANK13  BANK14  BANK15  BANK1
      +6  BANK17  BANK18  BANK19  BANK20  BANK21  BANK22  BANK23  BANK24  BANK25  BANK26  BANK27  BANK28  BANK29  BANK30  BANK3
      +1  BANK32  BANK33  BANK34  BANK35  BANK36  BANK37  BANK38  BANK39  BANK40  BANK41  BANK42  BANK43  BANK44  BANK45  BANK4
      +6  BANK47  BANK48  BANK49  BANK50  BANK51  BANK52  BANK53  BANK54
  1651 ;;      Params:         2       0       0       0       0       0       0       0       0       0       0       0       
      +0       0       0       0       0       0       0       0       0       0       0       0       0       0       0       
      +0       0       0       0       0       0       0       0       0       0       0       0       0       0       0       
      +0       0       0       0       0       0       0       0       0
  1652 ;;      Locals:         0       0       0       0       0       0       0       0       0       0       0       0       
      +0       0       0       0       0       0       0       0       0       0       0       0       0       0       0       
      +0       0       0       0       0       0       0       0       0       0       0       0       0       0       0       
      +0       0       0       0       0       0       0       0       0
  1653 ;;      Temps:          0       0       0       0       0       0       0       0       0       0       0       0       
      +0       0       0       0       0       0       0       0       0       0       0       0       0       0       0       
      +0       0       0       0       0       0       0       0       0       0       0       0       0       0       0       
      +0       0       0       0       0       0       0       0       0
  1654 ;;      Totals:         2       0       0       0       0       0       0       0       0       0       0       0       
      +0       0       0       0       0       0       0       0       0       0       0       0       0       0       0       
      +0       0       0       0       0       0       0       0       0       0       0       0       0       0       0       
      +0       0       0       0       0       0       0       0       0
  1655 ;;Total ram usage:        2 bytes
  1656 ;; Hardware stack levels used: 1
  1657 ;; Hardware stack levels required when called: 4
  1658 ;; This function calls:
  1659 ;;		_usart_put_hex
  1660 ;; This function is called by:
  1661 ;;		_b_process
  1662 ;; This function uses a non-reentrant model
  1663 ;;
  1664                           
  1665                           	psect	text4
  1666   000C3E                     __ptext4:
  1667                           	callstack 0
  1668   000C3E                     _usart_put_short:
  1669                           	callstack 121
  1670                           
  1671                           ;incstack = 0
  1672   000C3E  500D               	movf	(usart_put_short@x+1)^(0+1280),w,c
  1673   000C40  EC57  F005         	call	_usart_put_hex
  1674   000C44  500C               	movf	usart_put_short@x^(0+1280),w,c
  1675   000C46  EC57  F005         	call	_usart_put_hex
  1676   000C4A  0012               	return		;funcret
  1677   000C4C                     __end_of_usart_put_short:
  1678                           	callstack 0
  1679                           
  1680 ;; *************** function _update_status *****************
  1681 ;; Defined at:
  1682 ;;		line 189 in file "bootloader.c"
  1683 ;; Parameters:    Size  Location     Type
  1684 ;;  status          1    wreg     unsigned char 
  1685 ;; Auto vars:     Size  Location     Type
  1686 ;;  status          1    8[COMRAM] unsigned char 
  1687 ;; Return value:  Size  Location     Type
  1688 ;;                  1    wreg      void 
  1689 ;; Registers used:
  1690 ;;		wreg, status,2
  1691 ;; Tracked objects:
  1692 ;;		On entry : 0/0
  1693 ;;		On exit  : 0/0
  1694 ;;		Unchanged: 0/0
  1695 ;; Data sizes:     COMRAM   BANK5   BANK6   BANK7   BANK8   BANK9  BANK10  BANK11  BANK12  BANK13  BANK14  BANK15  BANK1
      +6  BANK17  BANK18  BANK19  BANK20  BANK21  BANK22  BANK23  BANK24  BANK25  BANK26  BANK27  BANK28  BANK29  BANK30  BANK3
      +1  BANK32  BANK33  BANK34  BANK35  BANK36  BANK37  BANK38  BANK39  BANK40  BANK41  BANK42  BANK43  BANK44  BANK45  BANK4
      +6  BANK47  BANK48  BANK49  BANK50  BANK51  BANK52  BANK53  BANK54
  1696 ;;      Params:         0       0       0       0       0       0       0       0       0       0       0       0       
      +0       0       0       0       0       0       0       0       0       0       0       0       0       0       0       
      +0       0       0       0       0       0       0       0       0       0       0       0       0       0       0       
      +0       0       0       0       0       0       0       0       0
  1697 ;;      Locals:         1       0       0       0       0       0       0       0       0       0       0       0       
      +0       0       0       0       0       0       0       0       0       0       0       0       0       0       0       
      +0       0       0       0       0       0       0       0       0       0       0       0       0       0       0       
      +0       0       0       0       0       0       0       0       0
  1698 ;;      Temps:          0       0       0       0       0       0       0       0       0       0       0       0       
      +0       0       0       0       0       0       0       0       0       0       0       0       0       0       0       
      +0       0       0       0       0       0       0       0       0       0       0       0       0       0       0       
      +0       0       0       0       0       0       0       0       0
  1699 ;;      Totals:         1       0       0       0       0       0       0       0       0       0       0       0       
      +0       0       0       0       0       0       0       0       0       0       0       0       0       0       0       
      +0       0       0       0       0       0       0       0       0       0       0       0       0       0       0       
      +0       0       0       0       0       0       0       0       0
  1700 ;;Total ram usage:        1 bytes
  1701 ;; Hardware stack levels used: 1
  1702 ;; Hardware stack levels required when called: 2
  1703 ;; This function calls:
  1704 ;;		Nothing
  1705 ;; This function is called by:
  1706 ;;		_main
  1707 ;;		_b_process
  1708 ;; This function uses a non-reentrant model
  1709 ;;
  1710                           
  1711                           	psect	text5
  1712   000BAE                     __ptext5:
  1713                           	callstack 0
  1714   000BAE                     _update_status:
  1715                           	callstack 124
  1716                           
  1717                           ;incstack = 0
  1718                           ;update_status@status stored from wreg
  1719   000BAE  6E09               	movwf	update_status@status^(0+1280),c
  1720                           
  1721                           ;bootloader.c: 189: void update_status(uint8_t status);bootloader.c: 190: {;bootloader.c
      +                          : 191:     SPI1CON2 = 0x1 | 0x2;
  1722   000BB0  0E03               	movlw	3
  1723   000BB2  0100               	movlb	0	; () banked
  1724   000BB4  6F86               	movwf	134,b	;volatile
  1725                           
  1726                           ;bootloader.c: 192:     SPI1TCNTL = 1;
  1727   000BB6  0E01               	movlw	1
  1728   000BB8  6F82               	movwf	130,b	;volatile
  1729                           
  1730                           ; BSR set to: 0
  1731                           ;bootloader.c: 193:     SPI1TXB = status;
  1732   000BBA  C509  F081         	movff	update_status@status,129	;volatile
  1733   000BBE                     l507:
  1734   000BBE  A0B1               	btfss	177,0,c	;volatile
  1735   000BC0  D7FE               	goto	l507
  1736                           
  1737                           ;bootloader.c: 195:     LATCbits.LATC0 = 1;
  1738   000BC2  80C0               	bsf	192,0,c	;volatile
  1739                           
  1740                           ;bootloader.c: 196:     SPI1RXB;
  1741   000BC4  0100               	movlb	0	; () banked
  1742   000BC6  5180               	movf	128,w,b	;volatile
  1743                           
  1744                           ;bootloader.c: 197:     LATCbits.LATC0 = 0;
  1745   000BC8  90C0               	bcf	192,0,c	;volatile
  1746                           
  1747                           ; BSR set to: 0
  1748   000BCA  0012               	return		;funcret
  1749   000BCC                     __end_of_update_status:
  1750                           	callstack 0
  1751                           
  1752 ;; *************** function _read_byte *****************
  1753 ;; Defined at:
  1754 ;;		line 203 in file "bootloader.c"
  1755 ;; Parameters:    Size  Location     Type
  1756 ;;		None
  1757 ;; Auto vars:     Size  Location     Type
  1758 ;;  lo              1    9[COMRAM] unsigned char 
  1759 ;;  hi              1    8[COMRAM] unsigned char 
  1760 ;; Return value:  Size  Location     Type
  1761 ;;                  1    wreg      unsigned char 
  1762 ;; Registers used:
  1763 ;;		wreg, fsr2l, fsr2h, status,2, status,0
  1764 ;; Tracked objects:
  1765 ;;		On entry : 0/0
  1766 ;;		On exit  : 0/0
  1767 ;;		Unchanged: 0/0
  1768 ;; Data sizes:     COMRAM   BANK5   BANK6   BANK7   BANK8   BANK9  BANK10  BANK11  BANK12  BANK13  BANK14  BANK15  BANK1
      +6  BANK17  BANK18  BANK19  BANK20  BANK21  BANK22  BANK23  BANK24  BANK25  BANK26  BANK27  BANK28  BANK29  BANK30  BANK3
      +1  BANK32  BANK33  BANK34  BANK35  BANK36  BANK37  BANK38  BANK39  BANK40  BANK41  BANK42  BANK43  BANK44  BANK45  BANK4
      +6  BANK47  BANK48  BANK49  BANK50  BANK51  BANK52  BANK53  BANK54
  1769 ;;      Params:         0       0       0       0       0       0       0       0       0       0       0       0       
      +0       0       0       0       0       0       0       0       0       0       0       0       0       0       0       
      +0       0       0       0       0       0       0       0       0       0       0       0       0       0       0       
      +0       0       0       0       0       0       0       0       0
  1770 ;;      Locals:         2       0       0       0       0       0       0       0       0       0       0       0       
      +0       0       0       0       0       0       0       0       0       0       0       0       0       0       0       
      +0       0       0       0       0       0       0       0       0       0       0       0       0       0       0       
      +0       0       0       0       0       0       0       0       0
  1771 ;;      Temps:          0       0       0       0       0       0       0       0       0       0       0       0       
      +0       0       0       0       0       0       0       0       0       0       0       0       0       0       0       
      +0       0       0       0       0       0       0       0       0       0       0       0       0       0       0       
      +0       0       0       0       0       0       0       0       0
  1772 ;;      Totals:         2       0       0       0       0       0       0       0       0       0       0       0       
      +0       0       0       0       0       0       0       0       0       0       0       0       0       0       0       
      +0       0       0       0       0       0       0       0       0       0       0       0       0       0       0       
      +0       0       0       0       0       0       0       0       0
  1773 ;;Total ram usage:        2 bytes
  1774 ;; Hardware stack levels used: 1
  1775 ;; Hardware stack levels required when called: 2
  1776 ;; This function calls:
  1777 ;;		Nothing
  1778 ;; This function is called by:
  1779 ;;		_b_process
  1780 ;; This function uses a non-reentrant model
  1781 ;;
  1782                           
  1783                           	psect	text6
  1784   0009EC                     __ptext6:
  1785                           	callstack 0
  1786   0009EC                     _read_byte:
  1787                           	callstack 123
  1788                           
  1789                           ;bootloader.c: 205:     uint8_t hi, lo;;bootloader.c: 206:     hi = BUFX[fsr2++] - '0';
  1790                           
  1791                           ; BSR set to: 0
  1792                           ;incstack = 0
  1793   0009EC  0E00               	movlw	low _BUFX
  1794   0009EE  2425               	addwf	_fsr2^(0+1280),w,c
  1795   0009F0  6ED9               	movwf	fsr2l,c
  1796   0009F2  6ADA               	clrf	fsr2h,c
  1797   0009F4  0E07               	movlw	high _BUFX
  1798   0009F6  22DA               	addwfc	fsr2h,f,c
  1799   0009F8  50DF               	movf	indf2,w,c
  1800   0009FA  0FD0               	addlw	208
  1801   0009FC  6E09               	movwf	read_byte@hi^(0+1280),c
  1802   0009FE  2A25               	incf	_fsr2^(0+1280),f,c
  1803                           
  1804                           ;bootloader.c: 207:     if(!(hi < 10))
  1805   000A00  0E09               	movlw	9
  1806   000A02  6409               	cpfsgt	read_byte@hi^(0+1280),c
  1807   000A04  D002               	goto	l1989
  1808                           
  1809                           ;bootloader.c: 208:         hi -= 'A' - '0' - 10;
  1810   000A06  0E07               	movlw	7
  1811   000A08  5E09               	subwf	read_byte@hi^(0+1280),f,c
  1812   000A0A                     l1989:
  1813                           
  1814                           ;bootloader.c: 209:     lo = BUFX[fsr2++] - '0';
  1815   000A0A  0E00               	movlw	low _BUFX
  1816   000A0C  2425               	addwf	_fsr2^(0+1280),w,c
  1817   000A0E  6ED9               	movwf	fsr2l,c
  1818   000A10  6ADA               	clrf	fsr2h,c
  1819   000A12  0E07               	movlw	high _BUFX
  1820   000A14  22DA               	addwfc	fsr2h,f,c
  1821   000A16  50DF               	movf	indf2,w,c
  1822   000A18  0FD0               	addlw	208
  1823   000A1A  6E0A               	movwf	read_byte@lo^(0+1280),c
  1824   000A1C  2A25               	incf	_fsr2^(0+1280),f,c
  1825                           
  1826                           ;bootloader.c: 210:     if(!(lo < 10))
  1827   000A1E  0E09               	movlw	9
  1828   000A20  640A               	cpfsgt	read_byte@lo^(0+1280),c
  1829   000A22  D002               	goto	l514
  1830                           
  1831                           ;bootloader.c: 211:         lo -= 'A' - '0' - 10;
  1832   000A24  0E07               	movlw	7
  1833   000A26  5E0A               	subwf	read_byte@lo^(0+1280),f,c
  1834   000A28                     l514:
  1835                           
  1836                           ;bootloader.c: 212:     return (uint8_t)((hi << 4) | lo);
  1837   000A28  3809               	swapf	read_byte@hi^(0+1280),w,c
  1838   000A2A  0BF0               	andlw	240
  1839   000A2C  100A               	iorwf	read_byte@lo^(0+1280),w,c
  1840   000A2E  0012               	return		;funcret
  1841   000A30                     __end_of_read_byte:
  1842                           	callstack 0
  1843                           
  1844 ;; *************** function _erase_flash *****************
  1845 ;; Defined at:
  1846 ;;		line 492 in file "bootloader.c"
  1847 ;; Parameters:    Size  Location     Type
  1848 ;;		None
  1849 ;; Auto vars:     Size  Location     Type
  1850 ;;		None
  1851 ;; Return value:  Size  Location     Type
  1852 ;;                  1    wreg      void 
  1853 ;; Registers used:
  1854 ;;		wreg, fsr0l, fsr0h, fsr2l, fsr2h, status,2, status,0, tblptrl, tblptrh, tblptru, cstack
  1855 ;; Tracked objects:
  1856 ;;		On entry : 0/0
  1857 ;;		On exit  : 0/0
  1858 ;;		Unchanged: 0/0
  1859 ;; Data sizes:     COMRAM   BANK5   BANK6   BANK7   BANK8   BANK9  BANK10  BANK11  BANK12  BANK13  BANK14  BANK15  BANK1
      +6  BANK17  BANK18  BANK19  BANK20  BANK21  BANK22  BANK23  BANK24  BANK25  BANK26  BANK27  BANK28  BANK29  BANK30  BANK3
      +1  BANK32  BANK33  BANK34  BANK35  BANK36  BANK37  BANK38  BANK39  BANK40  BANK41  BANK42  BANK43  BANK44  BANK45  BANK4
      +6  BANK47  BANK48  BANK49  BANK50  BANK51  BANK52  BANK53  BANK54
  1860 ;;      Params:         0       0       0       0       0       0       0       0       0       0       0       0       
      +0       0       0       0       0       0       0       0       0       0       0       0       0       0       0       
      +0       0       0       0       0       0       0       0       0       0       0       0       0       0       0       
      +0       0       0       0       0       0       0       0       0
  1861 ;;      Locals:         0       0       0       0       0       0       0       0       0       0       0       0       
      +0       0       0       0       0       0       0       0       0       0       0       0       0       0       0       
      +0       0       0       0       0       0       0       0       0       0       0       0       0       0       0       
      +0       0       0       0       0       0       0       0       0
  1862 ;;      Temps:          0       0       0       0       0       0       0       0       0       0       0       0       
      +0       0       0       0       0       0       0       0       0       0       0       0       0       0       0       
      +0       0       0       0       0       0       0       0       0       0       0       0       0       0       0       
      +0       0       0       0       0       0       0       0       0
  1863 ;;      Totals:         0       0       0       0       0       0       0       0       0       0       0       0       
      +0       0       0       0       0       0       0       0       0       0       0       0       0       0       0       
      +0       0       0       0       0       0       0       0       0       0       0       0       0       0       0       
      +0       0       0       0       0       0       0       0       0
  1864 ;;Total ram usage:        0 bytes
  1865 ;; Hardware stack levels used: 1
  1866 ;; Hardware stack levels required when called: 5
  1867 ;; This function calls:
  1868 ;;		_do_write
  1869 ;;		_usart_puts2_r
  1870 ;; This function is called by:
  1871 ;;		_b_process
  1872 ;; This function uses a non-reentrant model
  1873 ;;
  1874                           
  1875                           	psect	text7
  1876   0008BC                     __ptext7:
  1877                           	callstack 0
  1878   0008BC                     _erase_flash:
  1879                           	callstack 120
  1880                           
  1881                           ;bootloader.c: 495:     usart_puts2_r("Erasing Flash");
  1882                           
  1883                           ;incstack = 0
  1884   0008BC  0EDF               	movlw	low STR_1
  1885   0008BE  6E0D               	movwf	usart_puts2_r@str^(0+1280),c
  1886   0008C0  0E00               	movlw	high STR_1
  1887   0008C2  6E0E               	movwf	(usart_puts2_r@str+1)^(0+1280),c
  1888   0008C4  0E00               	movlw	low (STR_1 shr (0+16))
  1889   0008C6  6E0F               	movwf	(usart_puts2_r@str+2)^(0+1280),c
  1890   0008C8  ECE6  F005         	call	_usart_puts2_r	;wreg free
  1891                           
  1892                           ;bootloader.c: 497:     flags |= 1 << 6;
  1893   0008CC  8C38               	bsf	_flags^(0+1280),6,c	;volatile
  1894                           
  1895                           ;bootloader.c: 499:     for(tblptr = (uint24_t)(0xFFF +1); tblptr < (uint24_t)0x1FFFE; t
      +                          blptr += (uint24_t)0x100)
  1896   0008CE  0E00               	movlw	0
  1897   0008D0  6E31               	movwf	_tblptr^(0+1280),c
  1898   0008D2  0E10               	movlw	16
  1899   0008D4  6E32               	movwf	(_tblptr+1)^(0+1280),c
  1900   0008D6  0E00               	movlw	0
  1901   0008D8  6E33               	movwf	(_tblptr+2)^(0+1280),c
  1902   0008DA                     l2017:
  1903   0008DA  0EFE               	movlw	254
  1904   0008DC  5C31               	subwf	_tblptr^(0+1280),w,c
  1905   0008DE  0EFF               	movlw	255
  1906   0008E0  5832               	subwfb	(_tblptr+1)^(0+1280),w,c
  1907   0008E2  0E01               	movlw	1
  1908   0008E4  5833               	subwfb	(_tblptr+2)^(0+1280),w,c
  1909   0008E6  B0D8               	btfsc	status,0,c
  1910   0008E8  D00A               	goto	l2027
  1911                           
  1912                           ;bootloader.c: 500:         do_write(0x06);
  1913   0008EA  0E06               	movlw	6
  1914   0008EC  ECD3  F004         	call	_do_write
  1915   0008F0  0E00               	movlw	0
  1916   0008F2  2631               	addwf	_tblptr^(0+1280),f,c
  1917   0008F4  0E01               	movlw	1
  1918   0008F6  2232               	addwfc	(_tblptr+1)^(0+1280),f,c
  1919   0008F8  0E00               	movlw	0
  1920   0008FA  2233               	addwfc	(_tblptr+2)^(0+1280),f,c
  1921   0008FC  D7EE               	goto	l2017
  1922   0008FE                     l2027:
  1923                           
  1924                           ;bootloader.c: 502:     tblptr = 0;
  1925   0008FE  0E00               	movlw	0
  1926   000900  6E31               	movwf	_tblptr^(0+1280),c
  1927   000902  0E00               	movlw	0
  1928   000904  6E32               	movwf	(_tblptr+1)^(0+1280),c
  1929   000906  0E00               	movlw	0
  1930   000908  6E33               	movwf	(_tblptr+2)^(0+1280),c
  1931   00090A  0012               	return		;funcret
  1932   00090C                     __end_of_erase_flash:
  1933                           	callstack 0
  1934                           
  1935 ;; *************** function _erase_eeprom *****************
  1936 ;; Defined at:
  1937 ;;		line 508 in file "bootloader.c"
  1938 ;; Parameters:    Size  Location     Type
  1939 ;;		None
  1940 ;; Auto vars:     Size  Location     Type
  1941 ;;		None
  1942 ;; Return value:  Size  Location     Type
  1943 ;;                  1    wreg      void 
  1944 ;; Registers used:
  1945 ;;		wreg, fsr0l, fsr0h, fsr2l, fsr2h, status,2, status,0, tblptrl, tblptrh, tblptru, cstack
  1946 ;; Tracked objects:
  1947 ;;		On entry : 0/0
  1948 ;;		On exit  : 0/0
  1949 ;;		Unchanged: 0/0
  1950 ;; Data sizes:     COMRAM   BANK5   BANK6   BANK7   BANK8   BANK9  BANK10  BANK11  BANK12  BANK13  BANK14  BANK15  BANK1
      +6  BANK17  BANK18  BANK19  BANK20  BANK21  BANK22  BANK23  BANK24  BANK25  BANK26  BANK27  BANK28  BANK29  BANK30  BANK3
      +1  BANK32  BANK33  BANK34  BANK35  BANK36  BANK37  BANK38  BANK39  BANK40  BANK41  BANK42  BANK43  BANK44  BANK45  BANK4
      +6  BANK47  BANK48  BANK49  BANK50  BANK51  BANK52  BANK53  BANK54
  1951 ;;      Params:         0       0       0       0       0       0       0       0       0       0       0       0       
      +0       0       0       0       0       0       0       0       0       0       0       0       0       0       0       
      +0       0       0       0       0       0       0       0       0       0       0       0       0       0       0       
      +0       0       0       0       0       0       0       0       0
  1952 ;;      Locals:         0       0       0       0       0       0       0       0       0       0       0       0       
      +0       0       0       0       0       0       0       0       0       0       0       0       0       0       0       
      +0       0       0       0       0       0       0       0       0       0       0       0       0       0       0       
      +0       0       0       0       0       0       0       0       0
  1953 ;;      Temps:          0       0       0       0       0       0       0       0       0       0       0       0       
      +0       0       0       0       0       0       0       0       0       0       0       0       0       0       0       
      +0       0       0       0       0       0       0       0       0       0       0       0       0       0       0       
      +0       0       0       0       0       0       0       0       0
  1954 ;;      Totals:         0       0       0       0       0       0       0       0       0       0       0       0       
      +0       0       0       0       0       0       0       0       0       0       0       0       0       0       0       
      +0       0       0       0       0       0       0       0       0       0       0       0       0       0       0       
      +0       0       0       0       0       0       0       0       0
  1955 ;;Total ram usage:        0 bytes
  1956 ;; Hardware stack levels used: 1
  1957 ;; Hardware stack levels required when called: 5
  1958 ;; This function calls:
  1959 ;;		_do_write_ee
  1960 ;;		_usart_puts2_r
  1961 ;; This function is called by:
  1962 ;;		_b_process
  1963 ;; This function uses a non-reentrant model
  1964 ;;
  1965                           
  1966                           	psect	text8
  1967   00090C                     __ptext8:
  1968                           	callstack 0
  1969   00090C                     _erase_eeprom:
  1970                           	callstack 120
  1971                           
  1972                           ;bootloader.c: 511:     usart_puts2_r("Erasing EEPROM");
  1973                           
  1974                           ;incstack = 0
  1975   00090C  0ED0               	movlw	low STR_2
  1976   00090E  6E0D               	movwf	usart_puts2_r@str^(0+1280),c
  1977   000910  0E00               	movlw	high STR_2
  1978   000912  6E0E               	movwf	(usart_puts2_r@str+1)^(0+1280),c
  1979   000914  0E00               	movlw	low (STR_2 shr (0+16))
  1980   000916  6E0F               	movwf	(usart_puts2_r@str+2)^(0+1280),c
  1981   000918  ECE6  F005         	call	_usart_puts2_r	;wreg free
  1982                           
  1983                           ;bootloader.c: 513:     addr = (uint32_t)(0x380000U);
  1984   00091C  0E00               	movlw	0
  1985   00091E  6E1F               	movwf	_addr^(0+1280),c
  1986   000920  0E00               	movlw	0
  1987   000922  6E20               	movwf	(_addr+1)^(0+1280),c
  1988   000924  0E38               	movlw	56
  1989   000926  6E21               	movwf	(_addr+2)^(0+1280),c
  1990   000928  0E00               	movlw	0
  1991   00092A  6E22               	movwf	(_addr+3)^(0+1280),c
  1992                           
  1993                           ;bootloader.c: 515:     count = 0;
  1994   00092C  0E00               	movlw	0
  1995   00092E  6E27               	movwf	_count^(0+1280),c
  1996                           
  1997                           ;bootloader.c: 516:     for(type = (1024U) >> 8; type; type--)
  1998   000930  0E04               	movlw	4
  1999   000932  6E26               	movwf	_type^(0+1280),c
  2000   000934  D00E               	goto	l2047
  2001   000936                     l2037:
  2002                           
  2003                           ;bootloader.c: 519:         {;bootloader.c: 520:             do_write_ee(0xFF);
  2004   000936  0EFF               	movlw	255
  2005   000938  EC3A  F005         	call	_do_write_ee
  2006                           
  2007                           ;bootloader.c: 521:             addr++;
  2008   00093C  0E01               	movlw	1
  2009   00093E  261F               	addwf	_addr^(0+1280),f,c
  2010   000940  0E00               	movlw	0
  2011   000942  2220               	addwfc	(_addr+1)^(0+1280),f,c
  2012   000944  2221               	addwfc	(_addr+2)^(0+1280),f,c
  2013   000946  2222               	addwfc	(_addr+3)^(0+1280),f,c
  2014                           
  2015                           ;bootloader.c: 522:             count--;
  2016   000948  0627               	decf	_count^(0+1280),f,c
  2017                           
  2018                           ;bootloader.c: 523:         } while(count);
  2019   00094A  5027               	movf	_count^(0+1280),w,c
  2020   00094C  A4D8               	btfss	status,2,c
  2021   00094E  D7F3               	goto	l2037
  2022                           
  2023                           ;bootloader.c: 524:     }
  2024   000950  0626               	decf	_type^(0+1280),f,c
  2025   000952                     l2047:
  2026   000952  5026               	movf	_type^(0+1280),w,c
  2027   000954  B4D8               	btfsc	status,2,c
  2028   000956  0012               	return	
  2029   000958  D7EE               	goto	l2037
  2030   00095A                     __end_of_erase_eeprom:
  2031                           	callstack 0
  2032                           
  2033 ;; *************** function _usart_puts2_r *****************
  2034 ;; Defined at:
  2035 ;;		line 200 in file "serial.c"
  2036 ;; Parameters:    Size  Location     Type
  2037 ;;  str             3   12[COMRAM] PTR const unsigned char 
  2038 ;;		 -> STR_2(15), STR_1(14), BUFX(256), 
  2039 ;; Auto vars:     Size  Location     Type
  2040 ;;		None
  2041 ;; Return value:  Size  Location     Type
  2042 ;;                  1    wreg      void 
  2043 ;; Registers used:
  2044 ;;		wreg, fsr0l, fsr0h, fsr2l, fsr2h, status,2, status,0, tblptrl, tblptrh, tblptru, cstack
  2045 ;; Tracked objects:
  2046 ;;		On entry : 0/0
  2047 ;;		On exit  : 0/0
  2048 ;;		Unchanged: 0/0
  2049 ;; Data sizes:     COMRAM   BANK5   BANK6   BANK7   BANK8   BANK9  BANK10  BANK11  BANK12  BANK13  BANK14  BANK15  BANK1
      +6  BANK17  BANK18  BANK19  BANK20  BANK21  BANK22  BANK23  BANK24  BANK25  BANK26  BANK27  BANK28  BANK29  BANK30  BANK3
      +1  BANK32  BANK33  BANK34  BANK35  BANK36  BANK37  BANK38  BANK39  BANK40  BANK41  BANK42  BANK43  BANK44  BANK45  BANK4
      +6  BANK47  BANK48  BANK49  BANK50  BANK51  BANK52  BANK53  BANK54
  2050 ;;      Params:         3       0       0       0       0       0       0       0       0       0       0       0       
      +0       0       0       0       0       0       0       0       0       0       0       0       0       0       0       
      +0       0       0       0       0       0       0       0       0       0       0       0       0       0       0       
      +0       0       0       0       0       0       0       0       0
  2051 ;;      Locals:         0       0       0       0       0       0       0       0       0       0       0       0       
      +0       0       0       0       0       0       0       0       0       0       0       0       0       0       0       
      +0       0       0       0       0       0       0       0       0       0       0       0       0       0       0       
      +0       0       0       0       0       0       0       0       0
  2052 ;;      Temps:          0       0       0       0       0       0       0       0       0       0       0       0       
      +0       0       0       0       0       0       0       0       0       0       0       0       0       0       0       
      +0       0       0       0       0       0       0       0       0       0       0       0       0       0       0       
      +0       0       0       0       0       0       0       0       0
  2053 ;;      Totals:         3       0       0       0       0       0       0       0       0       0       0       0       
      +0       0       0       0       0       0       0       0       0       0       0       0       0       0       0       
      +0       0       0       0       0       0       0       0       0       0       0       0       0       0       0       
      +0       0       0       0       0       0       0       0       0
  2054 ;;Total ram usage:        3 bytes
  2055 ;; Hardware stack levels used: 1
  2056 ;; Hardware stack levels required when called: 4
  2057 ;; This function calls:
  2058 ;;		_usart_puts_r
  2059 ;;		_usart_send
  2060 ;; This function is called by:
  2061 ;;		_b_process
  2062 ;;		_erase_flash
  2063 ;;		_erase_eeprom
  2064 ;; This function uses a non-reentrant model
  2065 ;;
  2066                           
  2067                           	psect	text9
  2068   000BCC                     __ptext9:
  2069                           	callstack 0
  2070   000BCC                     _usart_puts2_r:
  2071                           	callstack 121
  2072                           
  2073                           ;serial.c: 200: void usart_put_long(long x);serial.c: 201: {;serial.c: 202:  usart_put_h
      +                          ex((x >> 24) & 0xff);
  2074                           
  2075                           ;incstack = 0
  2076   000BCC  C50D  F50A         	movff	usart_puts2_r@str,usart_puts_r@str
  2077   000BD0  C50E  F50B         	movff	usart_puts2_r@str+1,usart_puts_r@str+1
  2078   000BD4  C50F  F50C         	movff	usart_puts2_r@str+2,usart_puts_r@str+2
  2079   000BD8  EC31  F004         	call	_usart_puts_r	;wreg free
  2080                           
  2081                           ;serial.c: 203:  usart_put_hex((x >> 16) & 0xff);
  2082   000BDC  0E0D               	movlw	13
  2083   000BDE  ECA8  F005         	call	_usart_send
  2084                           
  2085                           ;serial.c: 204:  usart_put_hex((x >> 8) & 0xff);
  2086   000BE2  0E0A               	movlw	10
  2087   000BE4  ECA8  F005         	call	_usart_send
  2088   000BE8  0012               	return		;funcret
  2089   000BEA                     __end_of_usart_puts2_r:
  2090                           	callstack 0
  2091                           
  2092 ;; *************** function _usart_puts_r *****************
  2093 ;; Defined at:
  2094 ;;		line 193 in file "serial.c"
  2095 ;; Parameters:    Size  Location     Type
  2096 ;;  str             3    9[COMRAM] PTR const unsigned char 
  2097 ;;		 -> STR_2(15), STR_1(14), BUFX(256), 
  2098 ;; Auto vars:     Size  Location     Type
  2099 ;;		None
  2100 ;; Return value:  Size  Location     Type
  2101 ;;                  1    wreg      void 
  2102 ;; Registers used:
  2103 ;;		wreg, fsr0l, fsr0h, fsr2l, fsr2h, status,2, status,0, tblptrl, tblptrh, tblptru, cstack
  2104 ;; Tracked objects:
  2105 ;;		On entry : 0/0
  2106 ;;		On exit  : 0/0
  2107 ;;		Unchanged: 0/0
  2108 ;; Data sizes:     COMRAM   BANK5   BANK6   BANK7   BANK8   BANK9  BANK10  BANK11  BANK12  BANK13  BANK14  BANK15  BANK1
      +6  BANK17  BANK18  BANK19  BANK20  BANK21  BANK22  BANK23  BANK24  BANK25  BANK26  BANK27  BANK28  BANK29  BANK30  BANK3
      +1  BANK32  BANK33  BANK34  BANK35  BANK36  BANK37  BANK38  BANK39  BANK40  BANK41  BANK42  BANK43  BANK44  BANK45  BANK4
      +6  BANK47  BANK48  BANK49  BANK50  BANK51  BANK52  BANK53  BANK54
  2109 ;;      Params:         3       0       0       0       0       0       0       0       0       0       0       0       
      +0       0       0       0       0       0       0       0       0       0       0       0       0       0       0       
      +0       0       0       0       0       0       0       0       0       0       0       0       0       0       0       
      +0       0       0       0       0       0       0       0       0
  2110 ;;      Locals:         0       0       0       0       0       0       0       0       0       0       0       0       
      +0       0       0       0       0       0       0       0       0       0       0       0       0       0       0       
      +0       0       0       0       0       0       0       0       0       0       0       0       0       0       0       
      +0       0       0       0       0       0       0       0       0
  2111 ;;      Temps:          0       0       0       0       0       0       0       0       0       0       0       0       
      +0       0       0       0       0       0       0       0       0       0       0       0       0       0       0       
      +0       0       0       0       0       0       0       0       0       0       0       0       0       0       0       
      +0       0       0       0       0       0       0       0       0
  2112 ;;      Totals:         3       0       0       0       0       0       0       0       0       0       0       0       
      +0       0       0       0       0       0       0       0       0       0       0       0       0       0       0       
      +0       0       0       0       0       0       0       0       0       0       0       0       0       0       0       
      +0       0       0       0       0       0       0       0       0
  2113 ;;Total ram usage:        3 bytes
  2114 ;; Hardware stack levels used: 1
  2115 ;; Hardware stack levels required when called: 3
  2116 ;; This function calls:
  2117 ;;		_usart_send
  2118 ;; This function is called by:
  2119 ;;		_usart_puts2_r
  2120 ;; This function uses a non-reentrant model
  2121 ;;
  2122                           
  2123                           	psect	text10
  2124   000862                     __ptext10:
  2125                           	callstack 0
  2126   000862                     _usart_puts_r:
  2127                           	callstack 121
  2128                           
  2129                           ;serial.c: 193: ;serial.c: 194: void usart_put_short(short x);serial.c: 195: {
  2130                           
  2131                           ;incstack = 0
  2132   000862  D018               	goto	l1909
  2133   000864                     l1905:
  2134                           
  2135                           ;serial.c: 196:  usart_put_hex((x >> 8) & 0xff);
  2136   000864  C50A  F4F6         	movff	usart_puts_r@str,tblptrl
  2137   000868  C50B  F4F7         	movff	usart_puts_r@str+1,tblptrh
  2138   00086C  C50C  F4F8         	movff	usart_puts_r@str+2,tblptru
  2139   000870  BAF8               	btfsc	tblptru,5,c
  2140   000872  D003               	bra	u727
  2141   000874  0008               	tblrd		*
  2142   000876  50F5               	movf	tablat,w,c
  2143   000878  D005               	bra	u720
  2144   00087A                     u727:
  2145   00087A  C4F6 F4E9          	movff	tblptrl,fsr0l
  2146   00087E  C4F7 F4EA          	movff	tblptrh,fsr0h
  2147   000882  50EF               	movf	indf0,w,c
  2148   000884                     u720:
  2149   000884  ECA8  F005         	call	_usart_send
  2150   000888  0E01               	movlw	1
  2151   00088A  260A               	addwf	usart_puts_r@str^(0+1280),f,c
  2152   00088C  0E00               	movlw	0
  2153   00088E  220B               	addwfc	(usart_puts_r@str+1)^(0+1280),f,c
  2154   000890  0E00               	movlw	0
  2155   000892  220C               	addwfc	(usart_puts_r@str+2)^(0+1280),f,c
  2156   000894                     l1909:
  2157                           
  2158                           ;serial.c: 195: {
  2159   000894  C50A  F4F6         	movff	usart_puts_r@str,tblptrl
  2160   000898  C50B  F4F7         	movff	usart_puts_r@str+1,tblptrh
  2161   00089C  C50C  F4F8         	movff	usart_puts_r@str+2,tblptru
  2162   0008A0  BAF8               	btfsc	tblptru,5,c
  2163   0008A2  D003               	bra	u737
  2164   0008A4  0008               	tblrd		*
  2165   0008A6  50F5               	movf	tablat,w,c
  2166   0008A8  D005               	bra	u730
  2167   0008AA                     u737:
  2168   0008AA  C4F6 F4E9          	movff	tblptrl,fsr0l
  2169   0008AE  C4F7 F4EA          	movff	tblptrh,fsr0h
  2170   0008B2  50EF               	movf	indf0,w,c
  2171   0008B4                     u730:
  2172   0008B4  0900               	iorlw	0
  2173   0008B6  B4D8               	btfsc	status,2,c
  2174   0008B8  0012               	return	
  2175   0008BA  D7D4               	goto	l1905
  2176   0008BC                     __end_of_usart_puts_r:
  2177                           	callstack 0
  2178                           
  2179 ;; *************** function _do_write_ee *****************
  2180 ;; Defined at:
  2181 ;;		line 599 in file "bootloader.c"
  2182 ;; Parameters:    Size  Location     Type
  2183 ;;  data            1    wreg     unsigned char 
  2184 ;; Auto vars:     Size  Location     Type
  2185 ;;  data            1    8[COMRAM] unsigned char 
  2186 ;; Return value:  Size  Location     Type
  2187 ;;                  1    wreg      void 
  2188 ;; Registers used:
  2189 ;;		wreg, status,2
  2190 ;; Tracked objects:
  2191 ;;		On entry : 0/0
  2192 ;;		On exit  : 0/0
  2193 ;;		Unchanged: 0/0
  2194 ;; Data sizes:     COMRAM   BANK5   BANK6   BANK7   BANK8   BANK9  BANK10  BANK11  BANK12  BANK13  BANK14  BANK15  BANK1
      +6  BANK17  BANK18  BANK19  BANK20  BANK21  BANK22  BANK23  BANK24  BANK25  BANK26  BANK27  BANK28  BANK29  BANK30  BANK3
      +1  BANK32  BANK33  BANK34  BANK35  BANK36  BANK37  BANK38  BANK39  BANK40  BANK41  BANK42  BANK43  BANK44  BANK45  BANK4
      +6  BANK47  BANK48  BANK49  BANK50  BANK51  BANK52  BANK53  BANK54
  2195 ;;      Params:         0       0       0       0       0       0       0       0       0       0       0       0       
      +0       0       0       0       0       0       0       0       0       0       0       0       0       0       0       
      +0       0       0       0       0       0       0       0       0       0       0       0       0       0       0       
      +0       0       0       0       0       0       0       0       0
  2196 ;;      Locals:         1       0       0       0       0       0       0       0       0       0       0       0       
      +0       0       0       0       0       0       0       0       0       0       0       0       0       0       0       
      +0       0       0       0       0       0       0       0       0       0       0       0       0       0       0       
      +0       0       0       0       0       0       0       0       0
  2197 ;;      Temps:          0       0       0       0       0       0       0       0       0       0       0       0       
      +0       0       0       0       0       0       0       0       0       0       0       0       0       0       0       
      +0       0       0       0       0       0       0       0       0       0       0       0       0       0       0       
      +0       0       0       0       0       0       0       0       0
  2198 ;;      Totals:         1       0       0       0       0       0       0       0       0       0       0       0       
      +0       0       0       0       0       0       0       0       0       0       0       0       0       0       0       
      +0       0       0       0       0       0       0       0       0       0       0       0       0       0       0       
      +0       0       0       0       0       0       0       0       0
  2199 ;;Total ram usage:        1 bytes
  2200 ;; Hardware stack levels used: 1
  2201 ;; Hardware stack levels required when called: 2
  2202 ;; This function calls:
  2203 ;;		Nothing
  2204 ;; This function is called by:
  2205 ;;		_main
  2206 ;;		_b_process
  2207 ;;		_erase_eeprom
  2208 ;; This function uses a non-reentrant model
  2209 ;;
  2210                           
  2211                           ;# 
  2212                           
  2213                           	psect	text11
  2214   000A74                     __ptext11:
  2215                           	callstack 0
  2216   000A74                     _do_write_ee:
  2217                           	callstack 124
  2218                           
  2219                           ;incstack = 0
  2220                           ;do_write_ee@data stored from wreg
  2221   000A74  6E09               	movwf	do_write_ee@data^(0+1280),c
  2222                           
  2223                           ;bootloader.c: 599: void do_write_ee(uint8_t data);bootloader.c: 600: {;bootloader.c: 60
      +                          2:     NVMADRU = (uint8_t) (addr >> 16);
  2224   000A76  C521  F045         	movff	_addr+2,69	;volatile
  2225                           
  2226                           ;bootloader.c: 603:     NVMADRH = (uint8_t) (addr >> 8);
  2227   000A7A  C520  F044         	movff	_addr+1,68	;volatile
  2228                           
  2229                           ;bootloader.c: 604:     NVMADRL = (uint8_t) addr;
  2230   000A7E  C51F  F043         	movff	_addr,67	;volatile
  2231                           
  2232                           ;bootloader.c: 607:     NVMDATL = data;
  2233   000A82  C509  F046         	movff	do_write_ee@data,70	;volatile
  2234                           
  2235                           ;bootloader.c: 610:     NVMCON1bits.NVMCMD = 0x03;
  2236   000A86  0100               	movlb	0	; () banked
  2237   000A88  5141               	movf	65,w,b	;volsfr
  2238   000A8A  0BF8               	andlw	-8
  2239   000A8C  0903               	iorlw	3
  2240   000A8E  6F41               	movwf	65,b	;volsfr
  2241                           
  2242                           ; BSR set to: 0
  2243                           ;bootloader.c: 613:     INTCON0bits.GIE = 0;
  2244   000A90  9ED6               	bcf	214,7,c	;volatile
  2245                           
  2246                           ;# 
  2247                           ;# 
  2248   000A92  0100               	banksel	66	;# 
  2249   000A94                     
  2250                           ;bootloader.c: 619:     NVMLOCK = 0x55;
  2251   000A94  0E55               	movlw	85
  2252   000A96  0100               	movlb	0	; () banked
  2253   000A98  6F42               	movwf	66,b	;volatile
  2254   000A9A  0EAA               	movlw	170	;# 
  2255   000A9C  6F42               	movwf	66,b	;# 
  2256   000A9E  8140               	bsf	64,0,b	;# 
  2257                           
  2258                           ;bootloader.c: 628:     INTCON0bits.GIE = 1;
  2259   000AA0  8ED6               	bsf	214,7,c	;volatile
  2260                           
  2261                           ;bootloader.c: 631:     NVMCON1bits.NVMCMD = 0x00;
  2262   000AA2  0EF8               	movlw	-8
  2263   000AA4  0100               	movlb	0	; () banked
  2264   000AA6  1741               	andwf	65,f,b	;volsfr
  2265   000AA8                     l602:
  2266                           
  2267                           ; BSR set to: 0
  2268   000AA8  A140               	btfss	64,0,b	;volatile
  2269   000AAA  0012               	return	
  2270   000AAC  D7FD               	goto	l602
  2271   000AAE                     __end_of_do_write_ee:
  2272                           	callstack 0
  2273                           
  2274 ;; *************** function _b_last *****************
  2275 ;; Defined at:
  2276 ;;		line 528 in file "bootloader.c"
  2277 ;; Parameters:    Size  Location     Type
  2278 ;;		None
  2279 ;; Auto vars:     Size  Location     Type
  2280 ;;		None
  2281 ;; Return value:  Size  Location     Type
  2282 ;;                  1    wreg      void 
  2283 ;; Registers used:
  2284 ;;		wreg, fsr2l, fsr2h, status,2, status,0, cstack
  2285 ;; Tracked objects:
  2286 ;;		On entry : 0/0
  2287 ;;		On exit  : 0/0
  2288 ;;		Unchanged: 0/0
  2289 ;; Data sizes:     COMRAM   BANK5   BANK6   BANK7   BANK8   BANK9  BANK10  BANK11  BANK12  BANK13  BANK14  BANK15  BANK1
      +6  BANK17  BANK18  BANK19  BANK20  BANK21  BANK22  BANK23  BANK24  BANK25  BANK26  BANK27  BANK28  BANK29  BANK30  BANK3
      +1  BANK32  BANK33  BANK34  BANK35  BANK36  BANK37  BANK38  BANK39  BANK40  BANK41  BANK42  BANK43  BANK44  BANK45  BANK4
      +6  BANK47  BANK48  BANK49  BANK50  BANK51  BANK52  BANK53  BANK54
  2290 ;;      Params:         0       0       0       0       0       0       0       0       0       0       0       0       
      +0       0       0       0       0       0       0       0       0       0       0       0       0       0       0       
      +0       0       0       0       0       0       0       0       0       0       0       0       0       0       0       
      +0       0       0       0       0       0       0       0       0
  2291 ;;      Locals:         0       0       0       0       0       0       0       0       0       0       0       0       
      +0       0       0       0       0       0       0       0       0       0       0       0       0       0       0       
      +0       0       0       0       0       0       0       0       0       0       0       0       0       0       0       
      +0       0       0       0       0       0       0       0       0
  2292 ;;      Temps:          3       0       0       0       0       0       0       0       0       0       0       0       
      +0       0       0       0       0       0       0       0       0       0       0       0       0       0       0       
      +0       0       0       0       0       0       0       0       0       0       0       0       0       0       0       
      +0       0       0       0       0       0       0       0       0
  2293 ;;      Totals:         3       0       0       0       0       0       0       0       0       0       0       0       
      +0       0       0       0       0       0       0       0       0       0       0       0       0       0       0       
      +0       0       0       0       0       0       0       0       0       0       0       0       0       0       0       
      +0       0       0       0       0       0       0       0       0
  2294 ;;Total ram usage:        3 bytes
  2295 ;; Hardware stack levels used: 1
  2296 ;; Hardware stack levels required when called: 6
  2297 ;; This function calls:
  2298 ;;		_b_write_block
  2299 ;; This function is called by:
  2300 ;;		_b_process
  2301 ;; This function uses a non-reentrant model
  2302 ;;
  2303                           
  2304                           	psect	text12
  2305   000A30                     __ptext12:
  2306                           	callstack 0
  2307   000A30                     _b_last:
  2308                           	callstack 119
  2309                           
  2310                           ;bootloader.c: 530:     if(flags & (1 << 3))
  2311                           
  2312                           ; BSR set to: 0
  2313                           ;incstack = 0
  2314   000A30  A638               	btfss	_flags^(0+1280),3,c	;volatile
  2315   000A32  0012               	return	
  2316   000A34  D00E               	goto	l2007
  2317   000A36                     l2003:
  2318                           
  2319                           ;bootloader.c: 533:         {;bootloader.c: 534:             *(uint8_t *)((0x3700U) + (t
      +                          blptr++ & (0x100 - 1))) = 0xFF;
  2320   000A36  5031               	movf	_tblptr^(0+1280),w,c
  2321   000A38  EE2D F300          	lfsr	2,14080
  2322   000A3C  26D9               	addwf	fsr2l,f,c
  2323   000A3E  0E00               	movlw	0
  2324   000A40  22DA               	addwfc	fsr2h,f,c
  2325   000A42  0EFF               	movlw	255
  2326   000A44  6EDF               	movwf	indf2,c
  2327   000A46  0E01               	movlw	1
  2328   000A48  2631               	addwf	_tblptr^(0+1280),f,c
  2329   000A4A  0E00               	movlw	0
  2330   000A4C  2232               	addwfc	(_tblptr+1)^(0+1280),f,c
  2331   000A4E  0E00               	movlw	0
  2332   000A50  2233               	addwfc	(_tblptr+2)^(0+1280),f,c
  2333   000A52                     l2007:
  2334                           
  2335                           ;bootloader.c: 532:         while((tblptr & (0x100 - 1)) != 0)
  2336   000A52  0EFF               	movlw	255
  2337   000A54  1431               	andwf	_tblptr^(0+1280),w,c
  2338   000A56  6E13               	movwf	??_b_last^(0+1280),c
  2339   000A58  0E00               	movlw	0
  2340   000A5A  1432               	andwf	(_tblptr+1)^(0+1280),w,c
  2341   000A5C  6E14               	movwf	(??_b_last+1)^(0+1280),c
  2342   000A5E  0E00               	movlw	0
  2343   000A60  1433               	andwf	(_tblptr+2)^(0+1280),w,c
  2344   000A62  6E15               	movwf	(??_b_last+2)^(0+1280),c
  2345   000A64  5013               	movf	??_b_last^(0+1280),w,c
  2346   000A66  1014               	iorwf	(??_b_last+1)^(0+1280),w,c
  2347   000A68  1015               	iorwf	(??_b_last+2)^(0+1280),w,c
  2348   000A6A  A4D8               	btfss	status,2,c
  2349   000A6C  D7E4               	goto	l2003
  2350                           
  2351                           ;bootloader.c: 536:         b_write_block();
  2352   000A6E  EC51  F003         	call	_b_write_block	;wreg free
  2353   000A72  0012               	return		;funcret
  2354   000A74                     __end_of_b_last:
  2355                           	callstack 0
  2356                           
  2357 ;; *************** function _b_write_block *****************
  2358 ;; Defined at:
  2359 ;;		line 543 in file "bootloader.c"
  2360 ;; Parameters:    Size  Location     Type
  2361 ;;		None
  2362 ;; Auto vars:     Size  Location     Type
  2363 ;;		None
  2364 ;; Return value:  Size  Location     Type
  2365 ;;                  1    wreg      void 
  2366 ;; Registers used:
  2367 ;;		wreg, fsr2l, fsr2h, status,2, status,0, cstack
  2368 ;; Tracked objects:
  2369 ;;		On entry : 0/0
  2370 ;;		On exit  : 0/0
  2371 ;;		Unchanged: 0/0
  2372 ;; Data sizes:     COMRAM   BANK5   BANK6   BANK7   BANK8   BANK9  BANK10  BANK11  BANK12  BANK13  BANK14  BANK15  BANK1
      +6  BANK17  BANK18  BANK19  BANK20  BANK21  BANK22  BANK23  BANK24  BANK25  BANK26  BANK27  BANK28  BANK29  BANK30  BANK3
      +1  BANK32  BANK33  BANK34  BANK35  BANK36  BANK37  BANK38  BANK39  BANK40  BANK41  BANK42  BANK43  BANK44  BANK45  BANK4
      +6  BANK47  BANK48  BANK49  BANK50  BANK51  BANK52  BANK53  BANK54
  2373 ;;      Params:         0       0       0       0       0       0       0       0       0       0       0       0       
      +0       0       0       0       0       0       0       0       0       0       0       0       0       0       0       
      +0       0       0       0       0       0       0       0       0       0       0       0       0       0       0       
      +0       0       0       0       0       0       0       0       0
  2374 ;;      Locals:         0       0       0       0       0       0       0       0       0       0       0       0       
      +0       0       0       0       0       0       0       0       0       0       0       0       0       0       0       
      +0       0       0       0       0       0       0       0       0       0       0       0       0       0       0       
      +0       0       0       0       0       0       0       0       0
  2375 ;;      Temps:          3       0       0       0       0       0       0       0       0       0       0       0       
      +0       0       0       0       0       0       0       0       0       0       0       0       0       0       0       
      +0       0       0       0       0       0       0       0       0       0       0       0       0       0       0       
      +0       0       0       0       0       0       0       0       0
  2376 ;;      Totals:         3       0       0       0       0       0       0       0       0       0       0       0       
      +0       0       0       0       0       0       0       0       0       0       0       0       0       0       0       
      +0       0       0       0       0       0       0       0       0       0       0       0       0       0       0       
      +0       0       0       0       0       0       0       0       0
  2377 ;;Total ram usage:        3 bytes
  2378 ;; Hardware stack levels used: 1
  2379 ;; Hardware stack levels required when called: 5
  2380 ;; This function calls:
  2381 ;;		_do_write
  2382 ;;		_usart_put_long
  2383 ;;		_usart_send
  2384 ;; This function is called by:
  2385 ;;		_b_process
  2386 ;;		_b_last
  2387 ;; This function uses a non-reentrant model
  2388 ;;
  2389                           
  2390                           	psect	text13
  2391   0006A2                     __ptext13:
  2392                           	callstack 0
  2393   0006A2                     _b_write_block:
  2394                           	callstack 120
  2395                           
  2396                           ;bootloader.c: 545:     if(flags & (1 << 3))
  2397                           
  2398                           ;incstack = 0
  2399   0006A2  A638               	btfss	_flags^(0+1280),3,c	;volatile
  2400   0006A4  0012               	return	
  2401                           
  2402                           ;bootloader.c: 546:     {;bootloader.c: 547:         flags &= ~(1 << 3);
  2403   0006A6  9638               	bcf	_flags^(0+1280),3,c	;volatile
  2404                           
  2405                           ;bootloader.c: 548:         tblptr--;
  2406   0006A8  0E01               	movlw	1
  2407   0006AA  5E31               	subwf	_tblptr^(0+1280),f,c
  2408   0006AC  0E00               	movlw	0
  2409   0006AE  5A32               	subwfb	(_tblptr+1)^(0+1280),f,c
  2410   0006B0  0E00               	movlw	0
  2411   0006B2  5A33               	subwfb	(_tblptr+2)^(0+1280),f,c
  2412                           
  2413                           ;bootloader.c: 549:         if(!(tblptr < (uint24_t)(0xFFF + 1)))
  2414   0006B4  5033               	movf	(_tblptr+2)^(0+1280),w,c
  2415   0006B6  E104               	bnz	u770
  2416   0006B8  0E10               	movlw	16
  2417   0006BA  5C32               	subwf	(_tblptr+1)^(0+1280),w,c
  2418   0006BC  A0D8               	btfss	status,0,c
  2419   0006BE  D028               	goto	l1963
  2420   0006C0                     u770:
  2421                           
  2422                           ;bootloader.c: 550:         {;bootloader.c: 553:             usart_put_long(tblptr & ~(0
      +                          x100 - 1)); usart_send('-'); usart_put_long(tblptr); usart_send('\r'); usart_send('\n');
  2423   0006C0  0E00               	movlw	0
  2424   0006C2  1431               	andwf	_tblptr^(0+1280),w,c
  2425   0006C4  6E10               	movwf	??_b_write_block^(0+1280),c
  2426   0006C6  0EFF               	movlw	255
  2427   0006C8  1432               	andwf	(_tblptr+1)^(0+1280),w,c
  2428   0006CA  6E11               	movwf	(??_b_write_block+1)^(0+1280),c
  2429   0006CC  0EFF               	movlw	255
  2430   0006CE  1433               	andwf	(_tblptr+2)^(0+1280),w,c
  2431   0006D0  6E12               	movwf	(??_b_write_block+2)^(0+1280),c
  2432   0006D2  5010               	movf	??_b_write_block^(0+1280),w,c
  2433   0006D4  6E0C               	movwf	usart_put_long@x^(0+1280),c
  2434   0006D6  5011               	movf	(??_b_write_block+1)^(0+1280),w,c
  2435   0006D8  6E0D               	movwf	(usart_put_long@x+1)^(0+1280),c
  2436   0006DA  5012               	movf	(??_b_write_block+2)^(0+1280),w,c
  2437   0006DC  6E0E               	movwf	(usart_put_long@x+2)^(0+1280),c
  2438   0006DE  6A0F               	clrf	(usart_put_long@x+3)^(0+1280),c
  2439   0006E0  EC12  F006         	call	_usart_put_long	;wreg free
  2440   0006E4  0E2D               	movlw	45
  2441   0006E6  ECA8  F005         	call	_usart_send
  2442   0006EA  5031               	movf	_tblptr^(0+1280),w,c
  2443   0006EC  6E0C               	movwf	usart_put_long@x^(0+1280),c
  2444   0006EE  5032               	movf	(_tblptr+1)^(0+1280),w,c
  2445   0006F0  6E0D               	movwf	(usart_put_long@x+1)^(0+1280),c
  2446   0006F2  5033               	movf	(_tblptr+2)^(0+1280),w,c
  2447   0006F4  6E0E               	movwf	(usart_put_long@x+2)^(0+1280),c
  2448   0006F6  6A0F               	clrf	(usart_put_long@x+3)^(0+1280),c
  2449   0006F8  EC12  F006         	call	_usart_put_long	;wreg free
  2450   0006FC  0E0D               	movlw	13
  2451   0006FE  ECA8  F005         	call	_usart_send
  2452   000702  0E0A               	movlw	10
  2453   000704  ECA8  F005         	call	_usart_send
  2454                           
  2455                           ;bootloader.c: 555:             flags |= 1 << 6;
  2456   000708  8C38               	bsf	_flags^(0+1280),6,c	;volatile
  2457                           
  2458                           ;bootloader.c: 556:             do_write(0x05);
  2459   00070A  0E05               	movlw	5
  2460   00070C  ECD3  F004         	call	_do_write
  2461   000710                     l1963:
  2462                           
  2463                           ;bootloader.c: 558:         tblptr++;
  2464   000710  0E01               	movlw	1
  2465   000712  2631               	addwf	_tblptr^(0+1280),f,c
  2466   000714  0E00               	movlw	0
  2467   000716  2232               	addwfc	(_tblptr+1)^(0+1280),f,c
  2468   000718  0E00               	movlw	0
  2469   00071A  2233               	addwfc	(_tblptr+2)^(0+1280),f,c
  2470   00071C  0012               	return		;funcret
  2471   00071E                     __end_of_b_write_block:
  2472                           	callstack 0
  2473                           
  2474 ;; *************** function _usart_put_long *****************
  2475 ;; Defined at:
  2476 ;;		line 232 in file "serial.c"
  2477 ;; Parameters:    Size  Location     Type
  2478 ;;  x               4   11[COMRAM] long 
  2479 ;; Auto vars:     Size  Location     Type
  2480 ;;		None
  2481 ;; Return value:  Size  Location     Type
  2482 ;;                  1    wreg      void 
  2483 ;; Registers used:
  2484 ;;		wreg, fsr2l, fsr2h, status,2, status,0, cstack
  2485 ;; Tracked objects:
  2486 ;;		On entry : 0/0
  2487 ;;		On exit  : 0/0
  2488 ;;		Unchanged: 0/0
  2489 ;; Data sizes:     COMRAM   BANK5   BANK6   BANK7   BANK8   BANK9  BANK10  BANK11  BANK12  BANK13  BANK14  BANK15  BANK1
      +6  BANK17  BANK18  BANK19  BANK20  BANK21  BANK22  BANK23  BANK24  BANK25  BANK26  BANK27  BANK28  BANK29  BANK30  BANK3
      +1  BANK32  BANK33  BANK34  BANK35  BANK36  BANK37  BANK38  BANK39  BANK40  BANK41  BANK42  BANK43  BANK44  BANK45  BANK4
      +6  BANK47  BANK48  BANK49  BANK50  BANK51  BANK52  BANK53  BANK54
  2490 ;;      Params:         4       0       0       0       0       0       0       0       0       0       0       0       
      +0       0       0       0       0       0       0       0       0       0       0       0       0       0       0       
      +0       0       0       0       0       0       0       0       0       0       0       0       0       0       0       
      +0       0       0       0       0       0       0       0       0
  2491 ;;      Locals:         0       0       0       0       0       0       0       0       0       0       0       0       
      +0       0       0       0       0       0       0       0       0       0       0       0       0       0       0       
      +0       0       0       0       0       0       0       0       0       0       0       0       0       0       0       
      +0       0       0       0       0       0       0       0       0
  2492 ;;      Temps:          0       0       0       0       0       0       0       0       0       0       0       0       
      +0       0       0       0       0       0       0       0       0       0       0       0       0       0       0       
      +0       0       0       0       0       0       0       0       0       0       0       0       0       0       0       
      +0       0       0       0       0       0       0       0       0
  2493 ;;      Totals:         4       0       0       0       0       0       0       0       0       0       0       0       
      +0       0       0       0       0       0       0       0       0       0       0       0       0       0       0       
      +0       0       0       0       0       0       0       0       0       0       0       0       0       0       0       
      +0       0       0       0       0       0       0       0       0
  2494 ;;Total ram usage:        4 bytes
  2495 ;; Hardware stack levels used: 1
  2496 ;; Hardware stack levels required when called: 4
  2497 ;; This function calls:
  2498 ;;		_usart_put_hex
  2499 ;; This function is called by:
  2500 ;;		_b_write_block
  2501 ;; This function uses a non-reentrant model
  2502 ;;
  2503                           
  2504                           	psect	text14
  2505   000C24                     __ptext14:
  2506                           	callstack 0
  2507   000C24                     _usart_put_long:
  2508                           	callstack 120
  2509                           
  2510                           ;incstack = 0
  2511   000C24  500F               	movf	(usart_put_long@x+3)^(0+1280),w,c
  2512   000C26  EC57  F005         	call	_usart_put_hex
  2513   000C2A  500E               	movf	(usart_put_long@x+2)^(0+1280),w,c
  2514   000C2C  EC57  F005         	call	_usart_put_hex
  2515   000C30  500D               	movf	(usart_put_long@x+1)^(0+1280),w,c
  2516   000C32  EC57  F005         	call	_usart_put_hex
  2517   000C36  500C               	movf	usart_put_long@x^(0+1280),w,c
  2518   000C38  EC57  F005         	call	_usart_put_hex
  2519   000C3C  0012               	return		;funcret
  2520   000C3E                     __end_of_usart_put_long:
  2521                           	callstack 0
  2522                           
  2523 ;; *************** function _usart_put_hex *****************
  2524 ;; Defined at:
  2525 ;;		line 207 in file "serial.c"
  2526 ;; Parameters:    Size  Location     Type
  2527 ;;  c               1    wreg     unsigned char 
  2528 ;; Auto vars:     Size  Location     Type
  2529 ;;  c               1    9[COMRAM] unsigned char 
  2530 ;;  x               1   10[COMRAM] unsigned char 
  2531 ;; Return value:  Size  Location     Type
  2532 ;;                  1    wreg      void 
  2533 ;; Registers used:
  2534 ;;		wreg, fsr2l, fsr2h, status,2, status,0, cstack
  2535 ;; Tracked objects:
  2536 ;;		On entry : 0/0
  2537 ;;		On exit  : 0/0
  2538 ;;		Unchanged: 0/0
  2539 ;; Data sizes:     COMRAM   BANK5   BANK6   BANK7   BANK8   BANK9  BANK10  BANK11  BANK12  BANK13  BANK14  BANK15  BANK1
      +6  BANK17  BANK18  BANK19  BANK20  BANK21  BANK22  BANK23  BANK24  BANK25  BANK26  BANK27  BANK28  BANK29  BANK30  BANK3
      +1  BANK32  BANK33  BANK34  BANK35  BANK36  BANK37  BANK38  BANK39  BANK40  BANK41  BANK42  BANK43  BANK44  BANK45  BANK4
      +6  BANK47  BANK48  BANK49  BANK50  BANK51  BANK52  BANK53  BANK54
  2540 ;;      Params:         0       0       0       0       0       0       0       0       0       0       0       0       
      +0       0       0       0       0       0       0       0       0       0       0       0       0       0       0       
      +0       0       0       0       0       0       0       0       0       0       0       0       0       0       0       
      +0       0       0       0       0       0       0       0       0
  2541 ;;      Locals:         2       0       0       0       0       0       0       0       0       0       0       0       
      +0       0       0       0       0       0       0       0       0       0       0       0       0       0       0       
      +0       0       0       0       0       0       0       0       0       0       0       0       0       0       0       
      +0       0       0       0       0       0       0       0       0
  2542 ;;      Temps:          0       0       0       0       0       0       0       0       0       0       0       0       
      +0       0       0       0       0       0       0       0       0       0       0       0       0       0       0       
      +0       0       0       0       0       0       0       0       0       0       0       0       0       0       0       
      +0       0       0       0       0       0       0       0       0
  2543 ;;      Totals:         2       0       0       0       0       0       0       0       0       0       0       0       
      +0       0       0       0       0       0       0       0       0       0       0       0       0       0       0       
      +0       0       0       0       0       0       0       0       0       0       0       0       0       0       0       
      +0       0       0       0       0       0       0       0       0
  2544 ;;Total ram usage:        2 bytes
  2545 ;; Hardware stack levels used: 1
  2546 ;; Hardware stack levels required when called: 3
  2547 ;; This function calls:
  2548 ;;		_usart_send
  2549 ;; This function is called by:
  2550 ;;		_usart_put_short
  2551 ;;		_usart_put_long
  2552 ;; This function uses a non-reentrant model
  2553 ;;
  2554                           
  2555                           	psect	text15
  2556   000AAE                     __ptext15:
  2557                           	callstack 0
  2558   000AAE                     _usart_put_hex:
  2559                           	callstack 121
  2560                           
  2561                           ;incstack = 0
  2562                           ;usart_put_hex@c stored from wreg
  2563   000AAE  6E0A               	movwf	usart_put_hex@c^(0+1280),c
  2564   000AB0  380A               	swapf	usart_put_hex@c^(0+1280),w,c
  2565   000AB2  0B0F               	andlw	15
  2566   000AB4  0B0F               	andlw	15
  2567   000AB6  6E0B               	movwf	usart_put_hex@x^(0+1280),c
  2568   000AB8  0E09               	movlw	9
  2569   000ABA  640B               	cpfsgt	usart_put_hex@x^(0+1280),c
  2570   000ABC  D002               	goto	l1889
  2571   000ABE  0E37               	movlw	55
  2572   000AC0  D001               	goto	L2
  2573   000AC2                     l1889:
  2574   000AC2  0E30               	movlw	48
  2575   000AC4                     L2:
  2576   000AC4  260B               	addwf	usart_put_hex@x^(0+1280),f,c
  2577   000AC6  500B               	movf	usart_put_hex@x^(0+1280),w,c
  2578   000AC8  ECA8  F005         	call	_usart_send
  2579   000ACC  500A               	movf	usart_put_hex@c^(0+1280),w,c
  2580   000ACE  0B0F               	andlw	15
  2581   000AD0  6E0B               	movwf	usart_put_hex@x^(0+1280),c
  2582   000AD2  0E09               	movlw	9
  2583   000AD4  640B               	cpfsgt	usart_put_hex@x^(0+1280),c
  2584   000AD6  D002               	goto	l1899
  2585   000AD8  0E37               	movlw	55
  2586   000ADA  D001               	goto	L3
  2587   000ADC                     l1899:
  2588   000ADC  0E30               	movlw	48
  2589   000ADE                     L3:
  2590   000ADE  260B               	addwf	usart_put_hex@x^(0+1280),f,c
  2591   000AE0  500B               	movf	usart_put_hex@x^(0+1280),w,c
  2592   000AE2  ECA8  F005         	call	_usart_send
  2593   000AE6  0012               	return		;funcret
  2594   000AE8                     __end_of_usart_put_hex:
  2595                           	callstack 0
  2596                           
  2597 ;; *************** function _usart_send *****************
  2598 ;; Defined at:
  2599 ;;		line 120 in file "serial.c"
  2600 ;; Parameters:    Size  Location     Type
  2601 ;;  data            1    wreg     unsigned char 
  2602 ;; Auto vars:     Size  Location     Type
  2603 ;;  data            1    8[COMRAM] unsigned char 
  2604 ;; Return value:  Size  Location     Type
  2605 ;;                  1    wreg      void 
  2606 ;; Registers used:
  2607 ;;		wreg, fsr2l, fsr2h, status,2, status,0
  2608 ;; Tracked objects:
  2609 ;;		On entry : 0/0
  2610 ;;		On exit  : 0/0
  2611 ;;		Unchanged: 0/0
  2612 ;; Data sizes:     COMRAM   BANK5   BANK6   BANK7   BANK8   BANK9  BANK10  BANK11  BANK12  BANK13  BANK14  BANK15  BANK1
      +6  BANK17  BANK18  BANK19  BANK20  BANK21  BANK22  BANK23  BANK24  BANK25  BANK26  BANK27  BANK28  BANK29  BANK30  BANK3
      +1  BANK32  BANK33  BANK34  BANK35  BANK36  BANK37  BANK38  BANK39  BANK40  BANK41  BANK42  BANK43  BANK44  BANK45  BANK4
      +6  BANK47  BANK48  BANK49  BANK50  BANK51  BANK52  BANK53  BANK54
  2613 ;;      Params:         0       0       0       0       0       0       0       0       0       0       0       0       
      +0       0       0       0       0       0       0       0       0       0       0       0       0       0       0       
      +0       0       0       0       0       0       0       0       0       0       0       0       0       0       0       
      +0       0       0       0       0       0       0       0       0
  2614 ;;      Locals:         1       0       0       0       0       0       0       0       0       0       0       0       
      +0       0       0       0       0       0       0       0       0       0       0       0       0       0       0       
      +0       0       0       0       0       0       0       0       0       0       0       0       0       0       0       
      +0       0       0       0       0       0       0       0       0
  2615 ;;      Temps:          0       0       0       0       0       0       0       0       0       0       0       0       
      +0       0       0       0       0       0       0       0       0       0       0       0       0       0       0       
      +0       0       0       0       0       0       0       0       0       0       0       0       0       0       0       
      +0       0       0       0       0       0       0       0       0
  2616 ;;      Totals:         1       0       0       0       0       0       0       0       0       0       0       0       
      +0       0       0       0       0       0       0       0       0       0       0       0       0       0       0       
      +0       0       0       0       0       0       0       0       0       0       0       0       0       0       0       
      +0       0       0       0       0       0       0       0       0
  2617 ;;Total ram usage:        1 bytes
  2618 ;; Hardware stack levels used: 1
  2619 ;; Hardware stack levels required when called: 2
  2620 ;; This function calls:
  2621 ;;		Nothing
  2622 ;; This function is called by:
  2623 ;;		_usart_puts_r
  2624 ;;		_usart_puts2_r
  2625 ;;		_usart_put_hex
  2626 ;;		_b_process
  2627 ;;		_b_write_block
  2628 ;;		_usart_puts
  2629 ;;		_usart_puts2
  2630 ;; This function uses a non-reentrant model
  2631 ;;
  2632                           
  2633                           	psect	text16
  2634   000B50                     __ptext16:
  2635                           	callstack 0
  2636   000B50                     _usart_send:
  2637                           	callstack 123
  2638                           
  2639                           ;incstack = 0
  2640                           ;usart_send@data stored from wreg
  2641   000B50  6E09               	movwf	usart_send@data^(0+1280),c
  2642   000B52                     
  2643                           ;serial.c: 120: ;serial.c: 121:    return;;serial.c: 122:   }
  2644   000B52  0E80               	movlw	128
  2645   000B54  6030               	cpfslt	_tx_count^(0+1280),c
  2646   000B56  D7FD               	goto	l1869
  2647                           
  2648                           ;serial.c: 123:  }
  2649   000B58  9CD6               	bcf	214,6,c	;volatile
  2650                           
  2651                           ;serial.c: 124: 
  2652   000B5A  0E60               	movlw	low _serial_out
  2653   000B5C  242F               	addwf	_tx_in^(0+1280),w,c
  2654   000B5E  6ED9               	movwf	fsr2l,c
  2655   000B60  6ADA               	clrf	fsr2h,c
  2656   000B62  0E05               	movlw	high _serial_out
  2657   000B64  22DA               	addwfc	fsr2h,f,c
  2658   000B66  C509  F4DF         	movff	usart_send@data,indf2
  2659                           
  2660                           ;serial.c: 125:  discard = U1RXB;
  2661   000B6A  2A2F               	incf	_tx_in^(0+1280),f,c
  2662   000B6C  0E80               	movlw	128
  2663   000B6E  182F               	xorwf	_tx_in^(0+1280),w,c
  2664   000B70  A4D8               	btfss	status,2,c
  2665   000B72  D002               	goto	l1879
  2666                           
  2667                           ;serial.c: 126: 
  2668   000B74  0E00               	movlw	0
  2669   000B76  6E2F               	movwf	_tx_in^(0+1280),c
  2670   000B78                     l1879:
  2671                           
  2672                           ;serial.c: 128: }
  2673   000B78  2A30               	incf	_tx_count^(0+1280),f,c
  2674                           
  2675                           ;serial.c: 129: 
  2676   000B7A  82A2               	bsf	162,1,c	;volatile
  2677                           
  2678                           ;serial.c: 130: 
  2679   000B7C  8CD6               	bsf	214,6,c	;volatile
  2680   000B7E  0012               	return		;funcret
  2681   000B80                     __end_of_usart_send:
  2682                           	callstack 0
  2683                           
  2684 ;; *************** function _do_write *****************
  2685 ;; Defined at:
  2686 ;;		line 565 in file "bootloader.c"
  2687 ;; Parameters:    Size  Location     Type
  2688 ;;  cmd             1    wreg     unsigned char 
  2689 ;; Auto vars:     Size  Location     Type
  2690 ;;  cmd             1   11[COMRAM] unsigned char 
  2691 ;; Return value:  Size  Location     Type
  2692 ;;                  1    wreg      void 
  2693 ;; Registers used:
  2694 ;;		wreg, status,2, status,0
  2695 ;; Tracked objects:
  2696 ;;		On entry : 0/0
  2697 ;;		On exit  : 0/0
  2698 ;;		Unchanged: 0/0
  2699 ;; Data sizes:     COMRAM   BANK5   BANK6   BANK7   BANK8   BANK9  BANK10  BANK11  BANK12  BANK13  BANK14  BANK15  BANK1
      +6  BANK17  BANK18  BANK19  BANK20  BANK21  BANK22  BANK23  BANK24  BANK25  BANK26  BANK27  BANK28  BANK29  BANK30  BANK3
      +1  BANK32  BANK33  BANK34  BANK35  BANK36  BANK37  BANK38  BANK39  BANK40  BANK41  BANK42  BANK43  BANK44  BANK45  BANK4
      +6  BANK47  BANK48  BANK49  BANK50  BANK51  BANK52  BANK53  BANK54
  2700 ;;      Params:         0       0       0       0       0       0       0       0       0       0       0       0       
      +0       0       0       0       0       0       0       0       0       0       0       0       0       0       0       
      +0       0       0       0       0       0       0       0       0       0       0       0       0       0       0       
      +0       0       0       0       0       0       0       0       0
  2701 ;;      Locals:         1       0       0       0       0       0       0       0       0       0       0       0       
      +0       0       0       0       0       0       0       0       0       0       0       0       0       0       0       
      +0       0       0       0       0       0       0       0       0       0       0       0       0       0       0       
      +0       0       0       0       0       0       0       0       0
  2702 ;;      Temps:          3       0       0       0       0       0       0       0       0       0       0       0       
      +0       0       0       0       0       0       0       0       0       0       0       0       0       0       0       
      +0       0       0       0       0       0       0       0       0       0       0       0       0       0       0       
      +0       0       0       0       0       0       0       0       0
  2703 ;;      Totals:         4       0       0       0       0       0       0       0       0       0       0       0       
      +0       0       0       0       0       0       0       0       0       0       0       0       0       0       0       
      +0       0       0       0       0       0       0       0       0       0       0       0       0       0       0       
      +0       0       0       0       0       0       0       0       0
  2704 ;;Total ram usage:        4 bytes
  2705 ;; Hardware stack levels used: 1
  2706 ;; Hardware stack levels required when called: 2
  2707 ;; This function calls:
  2708 ;;		Nothing
  2709 ;; This function is called by:
  2710 ;;		_erase_flash
  2711 ;;		_b_write_block
  2712 ;; This function uses a non-reentrant model
  2713 ;;
  2714                           
  2715                           ;# 
  2716                           
  2717                           	psect	text17
  2718   0009A6                     __ptext17:
  2719                           	callstack 0
  2720   0009A6                     _do_write:
  2721                           	callstack 122
  2722                           
  2723                           ;incstack = 0
  2724                           ;do_write@cmd stored from wreg
  2725   0009A6  6E0C               	movwf	do_write@cmd^(0+1280),c
  2726                           
  2727                           ;bootloader.c: 565: void do_write(uint8_t cmd);bootloader.c: 566: {;bootloader.c: 568:  
      +                             NVMADRU = (uint8_t) (tblptr >> 16);
  2728   0009A8  C533  F045         	movff	_tblptr+2,69	;volatile
  2729                           
  2730                           ;bootloader.c: 569:     NVMADRH = (uint8_t) (tblptr >> 8);
  2731   0009AC  C531  F509         	movff	_tblptr,??_do_write
  2732   0009B0  C532  F50A         	movff	_tblptr+1,??_do_write+1
  2733   0009B4  C533  F50B         	movff	_tblptr+2,??_do_write+2
  2734   0009B8  C50A  F509         	movff	??_do_write+1,??_do_write
  2735   0009BC  C50B  F50A         	movff	??_do_write+2,??_do_write+1
  2736   0009C0  6A0B               	clrf	(??_do_write+2)^(0+1280),c
  2737   0009C2  5009               	movf	??_do_write^(0+1280),w,c
  2738   0009C4  0100               	movlb	0	; () banked
  2739   0009C6  6F44               	movwf	68,b	;volatile
  2740                           
  2741                           ; BSR set to: 0
  2742                           ;bootloader.c: 572:     NVMCON1bits.NVMCMD = cmd;
  2743   0009C8  5141               	movf	65,w,b	;volsfr
  2744   0009CA  180C               	xorwf	do_write@cmd^(0+1280),w,c
  2745   0009CC  0BF8               	andlw	-8
  2746   0009CE  180C               	xorwf	do_write@cmd^(0+1280),w,c
  2747   0009D0  6F41               	movwf	65,b	;volsfr
  2748                           
  2749                           ; BSR set to: 0
  2750                           ;bootloader.c: 575:     INTCON0bits.GIE = 0;
  2751   0009D2  9ED6               	bcf	214,7,c	;volatile
  2752                           
  2753                           ;# 
  2754                           ;# 
  2755   0009D4  0100               	banksel	66	;# 
  2756   0009D6                     
  2757                           ;bootloader.c: 581:     NVMLOCK = 0x55;
  2758   0009D6  0E55               	movlw	85
  2759   0009D8  0100               	movlb	0	; () banked
  2760   0009DA  6F42               	movwf	66,b	;volatile
  2761   0009DC  0EAA               	movlw	170	;# 
  2762   0009DE  6F42               	movwf	66,b	;# 
  2763   0009E0  8140               	bsf	64,0,b	;# 
  2764                           
  2765                           ;bootloader.c: 590:     INTCON0bits.GIE = 1;
  2766   0009E2  8ED6               	bsf	214,7,c	;volatile
  2767                           
  2768                           ;bootloader.c: 593:     NVMCON1bits.NVMCMD = 0x00;
  2769   0009E4  0EF8               	movlw	-8
  2770   0009E6  0100               	movlb	0	; () banked
  2771   0009E8  1741               	andwf	65,f,b	;volsfr
  2772                           
  2773                           ; BSR set to: 0
  2774   0009EA  0012               	return		;funcret
  2775   0009EC                     __end_of_do_write:
  2776                           	callstack 0
  2777                           
  2778 ;; *************** function _SYSTEM_Initialize *****************
  2779 ;; Defined at:
  2780 ;;		line 41 in file "mcc_generated_files/system/src/system.c"
  2781 ;; Parameters:    Size  Location     Type
  2782 ;;		None
  2783 ;; Auto vars:     Size  Location     Type
  2784 ;;		None
  2785 ;; Return value:  Size  Location     Type
  2786 ;;                  1    wreg      void 
  2787 ;; Registers used:
  2788 ;;		wreg, status,2, status,0, cstack
  2789 ;; Tracked objects:
  2790 ;;		On entry : 0/0
  2791 ;;		On exit  : 0/0
  2792 ;;		Unchanged: 0/0
  2793 ;; Data sizes:     COMRAM   BANK5   BANK6   BANK7   BANK8   BANK9  BANK10  BANK11  BANK12  BANK13  BANK14  BANK15  BANK1
      +6  BANK17  BANK18  BANK19  BANK20  BANK21  BANK22  BANK23  BANK24  BANK25  BANK26  BANK27  BANK28  BANK29  BANK30  BANK3
      +1  BANK32  BANK33  BANK34  BANK35  BANK36  BANK37  BANK38  BANK39  BANK40  BANK41  BANK42  BANK43  BANK44  BANK45  BANK4
      +6  BANK47  BANK48  BANK49  BANK50  BANK51  BANK52  BANK53  BANK54
  2794 ;;      Params:         0       0       0       0       0       0       0       0       0       0       0       0       
      +0       0       0       0       0       0       0       0       0       0       0       0       0       0       0       
      +0       0       0       0       0       0       0       0       0       0       0       0       0       0       0       
      +0       0       0       0       0       0       0       0       0
  2795 ;;      Locals:         0       0       0       0       0       0       0       0       0       0       0       0       
      +0       0       0       0       0       0       0       0       0       0       0       0       0       0       0       
      +0       0       0       0       0       0       0       0       0       0       0       0       0       0       0       
      +0       0       0       0       0       0       0       0       0
  2796 ;;      Temps:          0       0       0       0       0       0       0       0       0       0       0       0       
      +0       0       0       0       0       0       0       0       0       0       0       0       0       0       0       
      +0       0       0       0       0       0       0       0       0       0       0       0       0       0       0       
      +0       0       0       0       0       0       0       0       0
  2797 ;;      Totals:         0       0       0       0       0       0       0       0       0       0       0       0       
      +0       0       0       0       0       0       0       0       0       0       0       0       0       0       0       
      +0       0       0       0       0       0       0       0       0       0       0       0       0       0       0       
      +0       0       0       0       0       0       0       0       0
  2798 ;;Total ram usage:        0 bytes
  2799 ;; Hardware stack levels used: 1
  2800 ;; Hardware stack levels required when called: 4
  2801 ;; This function calls:
  2802 ;;		_CLOCK_Initialize
  2803 ;;		_PIN_MANAGER_Initialize
  2804 ;;		_TMR0_Initialize
  2805 ;; This function is called by:
  2806 ;;		_main
  2807 ;; This function uses a non-reentrant model
  2808 ;;
  2809                           
  2810                           	psect	text18
  2811   000C4C                     __ptext18:
  2812                           	callstack 0
  2813   000C4C                     _SYSTEM_Initialize:
  2814                           	callstack 122
  2815                           
  2816                           ;mcc_generated_files/system/src/system.c: 43:     CLOCK_Initialize();
  2817                           
  2818                           ; BSR set to: 0
  2819                           ;incstack = 0
  2820   000C4C  EC04  F006         	call	_CLOCK_Initialize	;wreg free
  2821                           
  2822                           ;mcc_generated_files/system/src/system.c: 44:     PIN_MANAGER_Initialize();
  2823   000C50  ECDD  F002         	call	_PIN_MANAGER_Initialize	;wreg free
  2824                           
  2825                           ;mcc_generated_files/system/src/system.c: 47:     TMR0_Initialize();
  2826   000C54  EC8F  F005         	call	_TMR0_Initialize	;wreg free
  2827   000C58  0012               	return		;funcret
  2828   000C5A                     __end_of_SYSTEM_Initialize:
  2829                           	callstack 0
  2830                           
  2831 ;; *************** function _TMR0_Initialize *****************
  2832 ;; Defined at:
  2833 ;;		line 54 in file "mcc_generated_files/timer/src/tmr0.c"
  2834 ;; Parameters:    Size  Location     Type
  2835 ;;		None
  2836 ;; Auto vars:     Size  Location     Type
  2837 ;;		None
  2838 ;; Return value:  Size  Location     Type
  2839 ;;                  1    wreg      void 
  2840 ;; Registers used:
  2841 ;;		wreg, status,2, status,0, cstack
  2842 ;; Tracked objects:
  2843 ;;		On entry : 0/0
  2844 ;;		On exit  : 0/0
  2845 ;;		Unchanged: 0/0
  2846 ;; Data sizes:     COMRAM   BANK5   BANK6   BANK7   BANK8   BANK9  BANK10  BANK11  BANK12  BANK13  BANK14  BANK15  BANK1
      +6  BANK17  BANK18  BANK19  BANK20  BANK21  BANK22  BANK23  BANK24  BANK25  BANK26  BANK27  BANK28  BANK29  BANK30  BANK3
      +1  BANK32  BANK33  BANK34  BANK35  BANK36  BANK37  BANK38  BANK39  BANK40  BANK41  BANK42  BANK43  BANK44  BANK45  BANK4
      +6  BANK47  BANK48  BANK49  BANK50  BANK51  BANK52  BANK53  BANK54
  2847 ;;      Params:         0       0       0       0       0       0       0       0       0       0       0       0       
      +0       0       0       0       0       0       0       0       0       0       0       0       0       0       0       
      +0       0       0       0       0       0       0       0       0       0       0       0       0       0       0       
      +0       0       0       0       0       0       0       0       0
  2848 ;;      Locals:         0       0       0       0       0       0       0       0       0       0       0       0       
      +0       0       0       0       0       0       0       0       0       0       0       0       0       0       0       
      +0       0       0       0       0       0       0       0       0       0       0       0       0       0       0       
      +0       0       0       0       0       0       0       0       0
  2849 ;;      Temps:          2       0       0       0       0       0       0       0       0       0       0       0       
      +0       0       0       0       0       0       0       0       0       0       0       0       0       0       0       
      +0       0       0       0       0       0       0       0       0       0       0       0       0       0       0       
      +0       0       0       0       0       0       0       0       0
  2850 ;;      Totals:         2       0       0       0       0       0       0       0       0       0       0       0       
      +0       0       0       0       0       0       0       0       0       0       0       0       0       0       0       
      +0       0       0       0       0       0       0       0       0       0       0       0       0       0       0       
      +0       0       0       0       0       0       0       0       0
  2851 ;;Total ram usage:        2 bytes
  2852 ;; Hardware stack levels used: 1
  2853 ;; Hardware stack levels required when called: 3
  2854 ;; This function calls:
  2855 ;;		_TMR0_OverflowCallbackRegister
  2856 ;; This function is called by:
  2857 ;;		_SYSTEM_Initialize
  2858 ;; This function uses a non-reentrant model
  2859 ;;
  2860                           
  2861                           	psect	text19
  2862   000B1E                     __ptext19:
  2863                           	callstack 0
  2864   000B1E                     _TMR0_Initialize:
  2865                           	callstack 122
  2866                           
  2867                           ;mcc_generated_files/timer/src/tmr0.c: 57:     TMR0H = 0x0;
  2868                           
  2869                           ;incstack = 0
  2870   000B1E  0E00               	movlw	0
  2871   000B20  0103               	movlb	3	; () banked
  2872   000B22  6F19               	movwf	25,b	;volatile
  2873                           
  2874                           ;mcc_generated_files/timer/src/tmr0.c: 60:     TMR0L = 0x0;
  2875   000B24  0E00               	movlw	0
  2876   000B26  6F18               	movwf	24,b	;volatile
  2877                           
  2878                           ;mcc_generated_files/timer/src/tmr0.c: 63:     T0CON1 = 0x58;
  2879   000B28  0E58               	movlw	88
  2880   000B2A  6F1B               	movwf	27,b	;volatile
  2881                           
  2882                           ;mcc_generated_files/timer/src/tmr0.c: 66:     timerTMR0ReloadVal16bit = ((uint16_t)TMR0
      +                          H << 8) | TMR0L;
  2883   000B2C  5119               	movf	25,w,b	;volatile
  2884   000B2E  6E0B               	movwf	??_TMR0_Initialize^(0+1280),c
  2885   000B30  5118               	movf	24,w,b	;volatile
  2886   000B32  6E23               	movwf	_timerTMR0ReloadVal16bit^(0+1280),c	;volatile
  2887   000B34  C50B  F524         	movff	??_TMR0_Initialize,_timerTMR0ReloadVal16bit+1	;volatile
  2888                           
  2889                           ; BSR set to: 3
  2890                           ;mcc_generated_files/timer/src/tmr0.c: 69:     TMR0_OverflowCallbackRegister(TMR0_Defaul
      +                          tOverflowCallback);
  2891   000B38  0E00               	movlw	0
  2892   000B3A  6E09               	movwf	TMR0_OverflowCallbackRegister@CallbackHandler^(0+1280),c
  2893   000B3C  0E00               	movlw	0
  2894   000B3E  6E0A               	movwf	(TMR0_OverflowCallbackRegister@CallbackHandler+1)^(0+1280),c
  2895   000B40  EC2D  F006         	call	_TMR0_OverflowCallbackRegister	;wreg free
  2896                           
  2897                           ;mcc_generated_files/timer/src/tmr0.c: 72:     PIR3bits.TMR0IF = 0;
  2898   000B44  9EB1               	bcf	177,7,c	;volatile
  2899                           
  2900                           ;mcc_generated_files/timer/src/tmr0.c: 75:     PIE3bits.TMR0IE = 1;
  2901   000B46  8EA1               	bsf	161,7,c	;volatile
  2902                           
  2903                           ;mcc_generated_files/timer/src/tmr0.c: 78:     T0CON0 = 0x90;
  2904   000B48  0E90               	movlw	144
  2905   000B4A  0103               	movlb	3	; () banked
  2906   000B4C  6F1A               	movwf	26,b	;volatile
  2907                           
  2908                           ; BSR set to: 3
  2909   000B4E  0012               	return		;funcret
  2910   000B50                     __end_of_TMR0_Initialize:
  2911                           	callstack 0
  2912                           
  2913 ;; *************** function _TMR0_OverflowCallbackRegister *****************
  2914 ;; Defined at:
  2915 ;;		line 135 in file "mcc_generated_files/timer/src/tmr0.c"
  2916 ;; Parameters:    Size  Location     Type
  2917 ;;  CallbackHand    2    8[COMRAM] PTR FTN()void 
  2918 ;;		 -> TMR0_DefaultOverflowCallback(1), 
  2919 ;; Auto vars:     Size  Location     Type
  2920 ;;		None
  2921 ;; Return value:  Size  Location     Type
  2922 ;;                  1    wreg      void 
  2923 ;; Registers used:
  2924 ;;		wreg, status,2, status,0
  2925 ;; Tracked objects:
  2926 ;;		On entry : 0/0
  2927 ;;		On exit  : 0/0
  2928 ;;		Unchanged: 0/0
  2929 ;; Data sizes:     COMRAM   BANK5   BANK6   BANK7   BANK8   BANK9  BANK10  BANK11  BANK12  BANK13  BANK14  BANK15  BANK1
      +6  BANK17  BANK18  BANK19  BANK20  BANK21  BANK22  BANK23  BANK24  BANK25  BANK26  BANK27  BANK28  BANK29  BANK30  BANK3
      +1  BANK32  BANK33  BANK34  BANK35  BANK36  BANK37  BANK38  BANK39  BANK40  BANK41  BANK42  BANK43  BANK44  BANK45  BANK4
      +6  BANK47  BANK48  BANK49  BANK50  BANK51  BANK52  BANK53  BANK54
  2930 ;;      Params:         2       0       0       0       0       0       0       0       0       0       0       0       
      +0       0       0       0       0       0       0       0       0       0       0       0       0       0       0       
      +0       0       0       0       0       0       0       0       0       0       0       0       0       0       0       
      +0       0       0       0       0       0       0       0       0
  2931 ;;      Locals:         0       0       0       0       0       0       0       0       0       0       0       0       
      +0       0       0       0       0       0       0       0       0       0       0       0       0       0       0       
      +0       0       0       0       0       0       0       0       0       0       0       0       0       0       0       
      +0       0       0       0       0       0       0       0       0
  2932 ;;      Temps:          0       0       0       0       0       0       0       0       0       0       0       0       
      +0       0       0       0       0       0       0       0       0       0       0       0       0       0       0       
      +0       0       0       0       0       0       0       0       0       0       0       0       0       0       0       
      +0       0       0       0       0       0       0       0       0
  2933 ;;      Totals:         2       0       0       0       0       0       0       0       0       0       0       0       
      +0       0       0       0       0       0       0       0       0       0       0       0       0       0       0       
      +0       0       0       0       0       0       0       0       0       0       0       0       0       0       0       
      +0       0       0       0       0       0       0       0       0
  2934 ;;Total ram usage:        2 bytes
  2935 ;; Hardware stack levels used: 1
  2936 ;; Hardware stack levels required when called: 2
  2937 ;; This function calls:
  2938 ;;		Nothing
  2939 ;; This function is called by:
  2940 ;;		_TMR0_Initialize
  2941 ;; This function uses a non-reentrant model
  2942 ;;
  2943                           
  2944                           	psect	text20
  2945   000C5A                     __ptext20:
  2946                           	callstack 0
  2947   000C5A                     _TMR0_OverflowCallbackRegister:
  2948                           	callstack 122
  2949                           
  2950                           ;mcc_generated_files/timer/src/tmr0.c: 135: void TMR0_OverflowCallbackRegister(void (* C
      +                          allbackHandler)(void));mcc_generated_files/timer/src/tmr0.c: 136: {;mcc_generated_files/
      +                          timer/src/tmr0.c: 137:     TMR0_OverflowCallback = CallbackHandler;
  2951                           
  2952                           ; BSR set to: 3
  2953                           ;incstack = 0
  2954   000C5A  C509  F536         	movff	TMR0_OverflowCallbackRegister@CallbackHandler,_TMR0_OverflowCallback
  2955   000C5E  C50A  F537         	movff	TMR0_OverflowCallbackRegister@CallbackHandler+1,_TMR0_OverflowCallback+1
  2956   000C62  0012               	return		;funcret
  2957   000C64                     __end_of_TMR0_OverflowCallbackRegister:
  2958                           	callstack 0
  2959                           
  2960 ;; *************** function _PIN_MANAGER_Initialize *****************
  2961 ;; Defined at:
  2962 ;;		line 38 in file "mcc_generated_files/system/src/pins.c"
  2963 ;; Parameters:    Size  Location     Type
  2964 ;;		None
  2965 ;; Auto vars:     Size  Location     Type
  2966 ;;		None
  2967 ;; Return value:  Size  Location     Type
  2968 ;;                  1    wreg      void 
  2969 ;; Registers used:
  2970 ;;		wreg, status,2
  2971 ;; Tracked objects:
  2972 ;;		On entry : 0/0
  2973 ;;		On exit  : 0/0
  2974 ;;		Unchanged: 0/0
  2975 ;; Data sizes:     COMRAM   BANK5   BANK6   BANK7   BANK8   BANK9  BANK10  BANK11  BANK12  BANK13  BANK14  BANK15  BANK1
      +6  BANK17  BANK18  BANK19  BANK20  BANK21  BANK22  BANK23  BANK24  BANK25  BANK26  BANK27  BANK28  BANK29  BANK30  BANK3
      +1  BANK32  BANK33  BANK34  BANK35  BANK36  BANK37  BANK38  BANK39  BANK40  BANK41  BANK42  BANK43  BANK44  BANK45  BANK4
      +6  BANK47  BANK48  BANK49  BANK50  BANK51  BANK52  BANK53  BANK54
  2976 ;;      Params:         0       0       0       0       0       0       0       0       0       0       0       0       
      +0       0       0       0       0       0       0       0       0       0       0       0       0       0       0       
      +0       0       0       0       0       0       0       0       0       0       0       0       0       0       0       
      +0       0       0       0       0       0       0       0       0
  2977 ;;      Locals:         0       0       0       0       0       0       0       0       0       0       0       0       
      +0       0       0       0       0       0       0       0       0       0       0       0       0       0       0       
      +0       0       0       0       0       0       0       0       0       0       0       0       0       0       0       
      +0       0       0       0       0       0       0       0       0
  2978 ;;      Temps:          0       0       0       0       0       0       0       0       0       0       0       0       
      +0       0       0       0       0       0       0       0       0       0       0       0       0       0       0       
      +0       0       0       0       0       0       0       0       0       0       0       0       0       0       0       
      +0       0       0       0       0       0       0       0       0
  2979 ;;      Totals:         0       0       0       0       0       0       0       0       0       0       0       0       
      +0       0       0       0       0       0       0       0       0       0       0       0       0       0       0       
      +0       0       0       0       0       0       0       0       0       0       0       0       0       0       0       
      +0       0       0       0       0       0       0       0       0
  2980 ;;Total ram usage:        0 bytes
  2981 ;; Hardware stack levels used: 1
  2982 ;; Hardware stack levels required when called: 2
  2983 ;; This function calls:
  2984 ;;		Nothing
  2985 ;; This function is called by:
  2986 ;;		_SYSTEM_Initialize
  2987 ;; This function uses a non-reentrant model
  2988 ;;
  2989                           
  2990                           	psect	text21
  2991   0005BA                     __ptext21:
  2992                           	callstack 0
  2993   0005BA                     _PIN_MANAGER_Initialize:
  2994                           	callstack 123
  2995                           
  2996                           ;mcc_generated_files/system/src/pins.c: 43:     LATA = 0x0;
  2997                           
  2998                           ;incstack = 0
  2999   0005BA  0E00               	movlw	0
  3000   0005BC  6EBE               	movwf	190,c	;volatile
  3001                           
  3002                           ;mcc_generated_files/system/src/pins.c: 44:     LATB = 0x8;
  3003   0005BE  0E08               	movlw	8
  3004   0005C0  6EBF               	movwf	191,c	;volatile
  3005                           
  3006                           ;mcc_generated_files/system/src/pins.c: 45:     LATC = 0x46;
  3007   0005C2  0E46               	movlw	70
  3008   0005C4  6EC0               	movwf	192,c	;volatile
  3009                           
  3010                           ;mcc_generated_files/system/src/pins.c: 46:     LATD = 0x0;
  3011   0005C6  0E00               	movlw	0
  3012   0005C8  6EC1               	movwf	193,c	;volatile
  3013                           
  3014                           ;mcc_generated_files/system/src/pins.c: 47:     LATE = 0x0;
  3015   0005CA  0E00               	movlw	0
  3016   0005CC  6EC2               	movwf	194,c	;volatile
  3017                           
  3018                           ;mcc_generated_files/system/src/pins.c: 52:     TRISA = 0xDF;
  3019   0005CE  0EDF               	movlw	223
  3020   0005D0  6EC6               	movwf	198,c	;volatile
  3021                           
  3022                           ;mcc_generated_files/system/src/pins.c: 53:     TRISB = 0x37;
  3023   0005D2  0E37               	movlw	55
  3024   0005D4  6EC7               	movwf	199,c	;volatile
  3025                           
  3026                           ;mcc_generated_files/system/src/pins.c: 54:     TRISC = 0x98;
  3027   0005D6  0E98               	movlw	152
  3028   0005D8  6EC8               	movwf	200,c	;volatile
  3029                           
  3030                           ;mcc_generated_files/system/src/pins.c: 55:     TRISD = 0xFF;
  3031   0005DA  68C9               	setf	201,c	;volatile
  3032                           
  3033                           ;mcc_generated_files/system/src/pins.c: 56:     TRISE = 0x3;
  3034   0005DC  0E03               	movlw	3
  3035   0005DE  6ECA               	movwf	202,c	;volatile
  3036                           
  3037                           ;mcc_generated_files/system/src/pins.c: 61:     ANSELA = 0xC0;
  3038   0005E0  0EC0               	movlw	192
  3039   0005E2  0104               	movlb	4	; () banked
  3040   0005E4  6F00               	movwf	0,b	;volatile
  3041                           
  3042                           ;mcc_generated_files/system/src/pins.c: 62:     ANSELB = 0x0;
  3043   0005E6  0E00               	movlw	0
  3044   0005E8  6F08               	movwf	8,b	;volatile
  3045                           
  3046                           ;mcc_generated_files/system/src/pins.c: 63:     ANSELC = 0x0;
  3047   0005EA  0E00               	movlw	0
  3048   0005EC  6F10               	movwf	16,b	;volatile
  3049                           
  3050                           ;mcc_generated_files/system/src/pins.c: 64:     ANSELD = 0x0;
  3051   0005EE  0E00               	movlw	0
  3052   0005F0  6F18               	movwf	24,b	;volatile
  3053                           
  3054                           ;mcc_generated_files/system/src/pins.c: 65:     ANSELE = 0x3;
  3055   0005F2  0E03               	movlw	3
  3056   0005F4  6F20               	movwf	32,b	;volatile
  3057                           
  3058                           ;mcc_generated_files/system/src/pins.c: 70:     WPUA = 0x1F;
  3059   0005F6  0E1F               	movlw	31
  3060   0005F8  6F01               	movwf	1,b	;volatile
  3061                           
  3062                           ;mcc_generated_files/system/src/pins.c: 71:     WPUB = 0x7;
  3063   0005FA  0E07               	movlw	7
  3064   0005FC  6F09               	movwf	9,b	;volatile
  3065                           
  3066                           ;mcc_generated_files/system/src/pins.c: 72:     WPUC = 0x96;
  3067   0005FE  0E96               	movlw	150
  3068   000600  6F11               	movwf	17,b	;volatile
  3069                           
  3070                           ; BSR set to: 4
  3071                           ;mcc_generated_files/system/src/pins.c: 73:     WPUD = 0xFF;
  3072   000602  6919               	setf	25,b	;volatile
  3073                           
  3074                           ;mcc_generated_files/system/src/pins.c: 74:     WPUE = 0x0;
  3075   000604  0E00               	movlw	0
  3076   000606  6F21               	movwf	33,b	;volatile
  3077                           
  3078                           ;mcc_generated_files/system/src/pins.c: 79:     RB1I2C = 0x0;
  3079   000608  0E00               	movlw	0
  3080   00060A  0102               	movlb	2	; () banked
  3081   00060C  6F89               	movwf	137,b	;volatile
  3082                           
  3083                           ;mcc_generated_files/system/src/pins.c: 80:     RB2I2C = 0x0;
  3084   00060E  0E00               	movlw	0
  3085   000610  6F88               	movwf	136,b	;volatile
  3086                           
  3087                           ;mcc_generated_files/system/src/pins.c: 81:     RC3I2C = 0x0;
  3088   000612  0E00               	movlw	0
  3089   000614  6F87               	movwf	135,b	;volatile
  3090                           
  3091                           ;mcc_generated_files/system/src/pins.c: 82:     RC4I2C = 0x0;
  3092   000616  0E00               	movlw	0
  3093   000618  6F86               	movwf	134,b	;volatile
  3094                           
  3095                           ;mcc_generated_files/system/src/pins.c: 87:     ODCONA = 0x0;
  3096   00061A  0E00               	movlw	0
  3097   00061C  0104               	movlb	4	; () banked
  3098   00061E  6F02               	movwf	2,b	;volatile
  3099                           
  3100                           ;mcc_generated_files/system/src/pins.c: 88:     ODCONB = 0x0;
  3101   000620  0E00               	movlw	0
  3102   000622  6F0A               	movwf	10,b	;volatile
  3103                           
  3104                           ;mcc_generated_files/system/src/pins.c: 89:     ODCONC = 0x6;
  3105   000624  0E06               	movlw	6
  3106   000626  6F12               	movwf	18,b	;volatile
  3107                           
  3108                           ;mcc_generated_files/system/src/pins.c: 90:     ODCOND = 0x0;
  3109   000628  0E00               	movlw	0
  3110   00062A  6F1A               	movwf	26,b	;volatile
  3111                           
  3112                           ;mcc_generated_files/system/src/pins.c: 91:     ODCONE = 0x0;
  3113   00062C  0E00               	movlw	0
  3114   00062E  6F22               	movwf	34,b	;volatile
  3115                           
  3116                           ;mcc_generated_files/system/src/pins.c: 96:     SLRCONA = 0xDF;
  3117   000630  0EDF               	movlw	223
  3118   000632  6F03               	movwf	3,b	;volatile
  3119                           
  3120                           ; BSR set to: 4
  3121                           ;mcc_generated_files/system/src/pins.c: 97:     SLRCONB = 0xFF;
  3122   000634  690B               	setf	11,b	;volatile
  3123                           
  3124                           ;mcc_generated_files/system/src/pins.c: 98:     SLRCONC = 0xC6;
  3125   000636  0EC6               	movlw	198
  3126   000638  6F13               	movwf	19,b	;volatile
  3127                           
  3128                           ; BSR set to: 4
  3129                           ;mcc_generated_files/system/src/pins.c: 99:     SLRCOND = 0xFF;
  3130   00063A  691B               	setf	27,b	;volatile
  3131                           
  3132                           ;mcc_generated_files/system/src/pins.c: 100:     SLRCONE = 0x7;
  3133   00063C  0E07               	movlw	7
  3134   00063E  6F23               	movwf	35,b	;volatile
  3135                           
  3136                           ;mcc_generated_files/system/src/pins.c: 105:     INLVLA = 0xC0;
  3137   000640  0EC0               	movlw	192
  3138   000642  6F04               	movwf	4,b	;volatile
  3139                           
  3140                           ;mcc_generated_files/system/src/pins.c: 106:     INLVLB = 0x0;
  3141   000644  0E00               	movlw	0
  3142   000646  6F0C               	movwf	12,b	;volatile
  3143                           
  3144                           ;mcc_generated_files/system/src/pins.c: 107:     INLVLC = 0x0;
  3145   000648  0E00               	movlw	0
  3146   00064A  6F14               	movwf	20,b	;volatile
  3147                           
  3148                           ;mcc_generated_files/system/src/pins.c: 108:     INLVLD = 0x0;
  3149   00064C  0E00               	movlw	0
  3150   00064E  6F1C               	movwf	28,b	;volatile
  3151                           
  3152                           ;mcc_generated_files/system/src/pins.c: 109:     INLVLE = 0xB;
  3153   000650  0E0B               	movlw	11
  3154   000652  6F24               	movwf	36,b	;volatile
  3155                           
  3156                           ;mcc_generated_files/system/src/pins.c: 113:     U1RXPPS = 0x17;
  3157   000654  0E17               	movlw	23
  3158   000656  0102               	movlb	2	; () banked
  3159   000658  6F72               	movwf	114,b	;volatile
  3160                           
  3161                           ;mcc_generated_files/system/src/pins.c: 114:     SPI1SDIPPS = 0x14;
  3162   00065A  0E14               	movlw	20
  3163   00065C  6F6B               	movwf	107,b	;volatile
  3164                           
  3165                           ;mcc_generated_files/system/src/pins.c: 115:     RC6PPS = 0x20;
  3166   00065E  0E20               	movlw	32
  3167   000660  6F17               	movwf	23,b	;volatile
  3168                           
  3169                           ;mcc_generated_files/system/src/pins.c: 116:     RC5PPS = 0x32;
  3170   000662  0E32               	movlw	50
  3171   000664  6F16               	movwf	22,b	;volatile
  3172                           
  3173                           ;mcc_generated_files/system/src/pins.c: 117:     SPI1SCKPPS = 0x13;
  3174   000666  0E13               	movlw	19
  3175   000668  6F6A               	movwf	106,b	;volatile
  3176                           
  3177                           ;mcc_generated_files/system/src/pins.c: 118:     RC3PPS = 0x31;
  3178   00066A  0E31               	movlw	49
  3179   00066C  6F14               	movwf	20,b	;volatile
  3180                           
  3181                           ;mcc_generated_files/system/src/pins.c: 123:     IOCAP = 0x0;
  3182   00066E  0E00               	movlw	0
  3183   000670  0104               	movlb	4	; () banked
  3184   000672  6F05               	movwf	5,b	;volatile
  3185                           
  3186                           ;mcc_generated_files/system/src/pins.c: 124:     IOCAN = 0x0;
  3187   000674  0E00               	movlw	0
  3188   000676  6F06               	movwf	6,b	;volatile
  3189                           
  3190                           ;mcc_generated_files/system/src/pins.c: 125:     IOCAF = 0x0;
  3191   000678  0E00               	movlw	0
  3192   00067A  6F07               	movwf	7,b	;volatile
  3193                           
  3194                           ;mcc_generated_files/system/src/pins.c: 126:     IOCBP = 0x0;
  3195   00067C  0E00               	movlw	0
  3196   00067E  6F0D               	movwf	13,b	;volatile
  3197                           
  3198                           ;mcc_generated_files/system/src/pins.c: 127:     IOCBN = 0x0;
  3199   000680  0E00               	movlw	0
  3200   000682  6F0E               	movwf	14,b	;volatile
  3201                           
  3202                           ;mcc_generated_files/system/src/pins.c: 128:     IOCBF = 0x0;
  3203   000684  0E00               	movlw	0
  3204   000686  6F0F               	movwf	15,b	;volatile
  3205                           
  3206                           ;mcc_generated_files/system/src/pins.c: 129:     IOCCP = 0x0;
  3207   000688  0E00               	movlw	0
  3208   00068A  6F15               	movwf	21,b	;volatile
  3209                           
  3210                           ;mcc_generated_files/system/src/pins.c: 130:     IOCCN = 0x0;
  3211   00068C  0E00               	movlw	0
  3212   00068E  6F16               	movwf	22,b	;volatile
  3213                           
  3214                           ;mcc_generated_files/system/src/pins.c: 131:     IOCCF = 0x0;
  3215   000690  0E00               	movlw	0
  3216   000692  6F17               	movwf	23,b	;volatile
  3217                           
  3218                           ;mcc_generated_files/system/src/pins.c: 132:     IOCEP = 0x0;
  3219   000694  0E00               	movlw	0
  3220   000696  6F25               	movwf	37,b	;volatile
  3221                           
  3222                           ;mcc_generated_files/system/src/pins.c: 133:     IOCEN = 0x0;
  3223   000698  0E00               	movlw	0
  3224   00069A  6F26               	movwf	38,b	;volatile
  3225                           
  3226                           ;mcc_generated_files/system/src/pins.c: 134:     IOCEF = 0x0;
  3227   00069C  0E00               	movlw	0
  3228   00069E  6F27               	movwf	39,b	;volatile
  3229                           
  3230                           ; BSR set to: 4
  3231   0006A0  0012               	return		;funcret
  3232   0006A2                     __end_of_PIN_MANAGER_Initialize:
  3233                           	callstack 0
  3234                           
  3235 ;; *************** function _CLOCK_Initialize *****************
  3236 ;; Defined at:
  3237 ;;		line 37 in file "mcc_generated_files/system/src/clock.c"
  3238 ;; Parameters:    Size  Location     Type
  3239 ;;		None
  3240 ;; Auto vars:     Size  Location     Type
  3241 ;;		None
  3242 ;; Return value:  Size  Location     Type
  3243 ;;                  1    wreg      void 
  3244 ;; Registers used:
  3245 ;;		wreg, status,2
  3246 ;; Tracked objects:
  3247 ;;		On entry : 0/0
  3248 ;;		On exit  : 0/0
  3249 ;;		Unchanged: 0/0
  3250 ;; Data sizes:     COMRAM   BANK5   BANK6   BANK7   BANK8   BANK9  BANK10  BANK11  BANK12  BANK13  BANK14  BANK15  BANK1
      +6  BANK17  BANK18  BANK19  BANK20  BANK21  BANK22  BANK23  BANK24  BANK25  BANK26  BANK27  BANK28  BANK29  BANK30  BANK3
      +1  BANK32  BANK33  BANK34  BANK35  BANK36  BANK37  BANK38  BANK39  BANK40  BANK41  BANK42  BANK43  BANK44  BANK45  BANK4
      +6  BANK47  BANK48  BANK49  BANK50  BANK51  BANK52  BANK53  BANK54
  3251 ;;      Params:         0       0       0       0       0       0       0       0       0       0       0       0       
      +0       0       0       0       0       0       0       0       0       0       0       0       0       0       0       
      +0       0       0       0       0       0       0       0       0       0       0       0       0       0       0       
      +0       0       0       0       0       0       0       0       0
  3252 ;;      Locals:         0       0       0       0       0       0       0       0       0       0       0       0       
      +0       0       0       0       0       0       0       0       0       0       0       0       0       0       0       
      +0       0       0       0       0       0       0       0       0       0       0       0       0       0       0       
      +0       0       0       0       0       0       0       0       0
  3253 ;;      Temps:          0       0       0       0       0       0       0       0       0       0       0       0       
      +0       0       0       0       0       0       0       0       0       0       0       0       0       0       0       
      +0       0       0       0       0       0       0       0       0       0       0       0       0       0       0       
      +0       0       0       0       0       0       0       0       0
  3254 ;;      Totals:         0       0       0       0       0       0       0       0       0       0       0       0       
      +0       0       0       0       0       0       0       0       0       0       0       0       0       0       0       
      +0       0       0       0       0       0       0       0       0       0       0       0       0       0       0       
      +0       0       0       0       0       0       0       0       0
  3255 ;;Total ram usage:        0 bytes
  3256 ;; Hardware stack levels used: 1
  3257 ;; Hardware stack levels required when called: 2
  3258 ;; This function calls:
  3259 ;;		Nothing
  3260 ;; This function is called by:
  3261 ;;		_SYSTEM_Initialize
  3262 ;; This function uses a non-reentrant model
  3263 ;;
  3264                           
  3265                           	psect	text22
  3266   000C08                     __ptext22:
  3267                           	callstack 0
  3268   000C08                     _CLOCK_Initialize:
  3269                           	callstack 123
  3270                           
  3271                           ;mcc_generated_files/system/src/clock.c: 41:     OSCCON1 = 0x60;
  3272                           
  3273                           ; BSR set to: 4
  3274                           ;incstack = 0
  3275   000C08  0E60               	movlw	96
  3276   000C0A  0100               	movlb	0	; () banked
  3277   000C0C  6FAD               	movwf	173,b	;volatile
  3278                           
  3279                           ;mcc_generated_files/system/src/clock.c: 43:     OSCCON3 = 0x0;
  3280   000C0E  0E00               	movlw	0
  3281   000C10  6FAF               	movwf	175,b	;volatile
  3282                           
  3283                           ;mcc_generated_files/system/src/clock.c: 45:     OSCEN = 0x0;
  3284   000C12  0E00               	movlw	0
  3285   000C14  6FB3               	movwf	179,b	;volatile
  3286                           
  3287                           ;mcc_generated_files/system/src/clock.c: 47:     OSCFRQ = 0x8;
  3288   000C16  0E08               	movlw	8
  3289   000C18  6FB1               	movwf	177,b	;volatile
  3290                           
  3291                           ;mcc_generated_files/system/src/clock.c: 49:     OSCTUNE = 0x0;
  3292   000C1A  0E00               	movlw	0
  3293   000C1C  6FB0               	movwf	176,b	;volatile
  3294                           
  3295                           ;mcc_generated_files/system/src/clock.c: 51:     ACTCON = 0x0;
  3296   000C1E  0E00               	movlw	0
  3297   000C20  6FAC               	movwf	172,b	;volatile
  3298                           
  3299                           ; BSR set to: 0
  3300   000C22  0012               	return		;funcret
  3301   000C24                     __end_of_CLOCK_Initialize:
  3302                           	callstack 0
  3303                           
  3304 ;; *************** function _boot_int_lo *****************
  3305 ;; Defined at:
  3306 ;;		line 125 in file "bootloader.c"
  3307 ;; Parameters:    Size  Location     Type
  3308 ;;		None
  3309 ;; Auto vars:     Size  Location     Type
  3310 ;;		None
  3311 ;; Return value:  Size  Location     Type
  3312 ;;                  1    wreg      void 
  3313 ;; Registers used:
  3314 ;;		wreg, fsr2l, fsr2h, status,2, status,0, tblptrl, tblptrh, tblptru, cstack
  3315 ;; Tracked objects:
  3316 ;;		On entry : 0/0
  3317 ;;		On exit  : 0/0
  3318 ;;		Unchanged: 0/0
  3319 ;; Data sizes:     COMRAM   BANK5   BANK6   BANK7   BANK8   BANK9  BANK10  BANK11  BANK12  BANK13  BANK14  BANK15  BANK1
      +6  BANK17  BANK18  BANK19  BANK20  BANK21  BANK22  BANK23  BANK24  BANK25  BANK26  BANK27  BANK28  BANK29  BANK30  BANK3
      +1  BANK32  BANK33  BANK34  BANK35  BANK36  BANK37  BANK38  BANK39  BANK40  BANK41  BANK42  BANK43  BANK44  BANK45  BANK4
      +6  BANK47  BANK48  BANK49  BANK50  BANK51  BANK52  BANK53  BANK54
  3320 ;;      Params:         0       0       0       0       0       0       0       0       0       0       0       0       
      +0       0       0       0       0       0       0       0       0       0       0       0       0       0       0       
      +0       0       0       0       0       0       0       0       0       0       0       0       0       0       0       
      +0       0       0       0       0       0       0       0       0
  3321 ;;      Locals:         0       0       0       0       0       0       0       0       0       0       0       0       
      +0       0       0       0       0       0       0       0       0       0       0       0       0       0       0       
      +0       0       0       0       0       0       0       0       0       0       0       0       0       0       0       
      +0       0       0       0       0       0       0       0       0
  3322 ;;      Temps:          7       0       0       0       0       0       0       0       0       0       0       0       
      +0       0       0       0       0       0       0       0       0       0       0       0       0       0       0       
      +0       0       0       0       0       0       0       0       0       0       0       0       0       0       0       
      +0       0       0       0       0       0       0       0       0
  3323 ;;      Totals:         7       0       0       0       0       0       0       0       0       0       0       0       
      +0       0       0       0       0       0       0       0       0       0       0       0       0       0       0       
      +0       0       0       0       0       0       0       0       0       0       0       0       0       0       0       
      +0       0       0       0       0       0       0       0       0
  3324 ;;Total ram usage:        7 bytes
  3325 ;; Hardware stack levels used: 1
  3326 ;; Hardware stack levels required when called: 1
  3327 ;; This function calls:
  3328 ;;		_serial_rx_int
  3329 ;;		_serial_tx_int
  3330 ;;		i1_update_status
  3331 ;; This function is called by:
  3332 ;;		Interrupt level 1
  3333 ;; This function uses a non-reentrant model
  3334 ;;
  3335                           
  3336                           	psect	text23
  3337   0004C8                     __ptext23:
  3338                           	callstack 0
  3339   0004C8                     _boot_int_lo:
  3340                           	callstack 119
  3341                           
  3342                           ; BSR set to: 0
  3343                           ;incstack = 0
  3344   0004C8  C4D8 F504          	movff	status,??_boot_int_lo+2
  3345   0004CC  C4F6 F505          	movff	tblptrl,??_boot_int_lo+3
  3346   0004D0  C4F7 F506          	movff	tblptrh,??_boot_int_lo+4
  3347   0004D4  C4F8 F507          	movff	tblptru,??_boot_int_lo+5
  3348   0004D8  C4F5 F508          	movff	tablat,??_boot_int_lo+6
  3349                           
  3350                           ;bootloader.c: 127:     if(PIR6bits.INT1IF)
  3351   0004DC  A0B4               	btfss	180,0,c	;volatile
  3352   0004DE  D051               	goto	i1l485
  3353                           
  3354                           ;bootloader.c: 128:     {;bootloader.c: 129:         PIR6bits.INT1IF = 0;
  3355   0004E0  90B4               	bcf	180,0,c	;volatile
  3356                           
  3357                           ;bootloader.c: 130:         if(PORTAbits.RA4)
  3358   0004E2  A8CE               	btfss	206,4,c	;volatile
  3359   0004E4  D010               	goto	i1l2257
  3360                           
  3361                           ;bootloader.c: 131:         {;bootloader.c: 132:             BUFX[fsr2++] = PORTD;
  3362   0004E6  0E00               	movlw	low _BUFX
  3363   0004E8  2425               	addwf	_fsr2^(0+1280),w,c
  3364   0004EA  6ED9               	movwf	fsr2l,c
  3365   0004EC  6ADA               	clrf	fsr2h,c
  3366   0004EE  0E07               	movlw	high _BUFX
  3367   0004F0  22DA               	addwfc	fsr2h,f,c
  3368   0004F2  C4D1 F4DF          	movff	1233,indf2	;volatile
  3369   0004F6  2A25               	incf	_fsr2^(0+1280),f,c
  3370                           
  3371                           ;bootloader.c: 133:             if(PORTAbits.RA3)
  3372   0004F8  A6CE               	btfss	206,3,c	;volatile
  3373   0004FA  D03E               	goto	i1l2275
  3374                           
  3375                           ;bootloader.c: 134:             {;bootloader.c: 135:                 flags |= 1 << 1;
  3376   0004FC  8238               	bsf	_flags^(0+1280),1,c	;volatile
  3377                           
  3378                           ;bootloader.c: 136:                 update_status(0x80);
  3379   0004FE  0E80               	movlw	128
  3380   000500  ECF5  F005         	call	i1_update_status
  3381   000504  D039               	goto	i1l2275
  3382   000506                     i1l2257:
  3383                           
  3384                           ;bootloader.c: 140:         {;bootloader.c: 143:             if((PORTA & 0x0F) == 0)
  3385   000506  C4CE F502          	movff	1230,??_boot_int_lo	;volatile
  3386   00050A  0E0F               	movlw	15
  3387   00050C  1602               	andwf	??_boot_int_lo^(0+1280),f,c
  3388   00050E  A4D8               	btfss	status,2,c
  3389   000510  D011               	goto	i1l2261
  3390                           
  3391                           ;bootloader.c: 144:             {;bootloader.c: 145:                 LATD = boot_version
      +                           >> 8;
  3392   000512  0E06               	movlw	6
  3393   000514  6EF6               	movwf	tblptrl,c
  3394   000516                     	if	1	;There is more than 1 active tblptr byte
  3395   000516  0E00               	movlw	0
  3396   000518  6EF7               	movwf	tblptrh,c
  3397   00051A                     	endif
  3398   00051A                     	if	1	;There are 3 active tblptr bytes
  3399   00051A  0E00               	movlw	0
  3400   00051C  6EF8               	movwf	tblptru,c
  3401   00051E                     	endif
  3402   00051E  0009               	tblrd		*+
  3403   000520  C4F5 F502          	movff	tablat,??_boot_int_lo
  3404   000524  0009               	tblrd		*+
  3405   000526  C4F5 F503          	movff	tablat,??_boot_int_lo+1
  3406   00052A  C503  F502         	movff	??_boot_int_lo+1,??_boot_int_lo
  3407   00052E  6A03               	clrf	(??_boot_int_lo+1)^(0+1280),c
  3408   000530  5002               	movf	??_boot_int_lo^(0+1280),w,c
  3409   000532  D01F               	goto	L4
  3410   000534                     i1l2261:
  3411   000534  50CE               	movf	206,w,c	;volatile
  3412   000536  0B0F               	andlw	15
  3413   000538  06E8               	decf	wreg,f,c
  3414   00053A  A4D8               	btfss	status,2,c
  3415   00053C  D00A               	goto	i1l2265
  3416                           
  3417                           ;bootloader.c: 148:             {;bootloader.c: 149:                 LATD = (uint8_t)boo
      +                          t_version;
  3418   00053E  0E06               	movlw	6
  3419   000540  6EF6               	movwf	tblptrl,c
  3420   000542                     	if	1	;There is more than 1 active tblptr byte
  3421   000542  0E00               	movlw	0
  3422   000544  6EF7               	movwf	tblptrh,c
  3423   000546                     	endif
  3424   000546                     	if	1	;There are 3 active tblptr bytes
  3425   000546  0E00               	movlw	0
  3426   000548  6EF8               	movwf	tblptru,c
  3427   00054A                     	endif
  3428   00054A  0008               	tblrd		*
  3429   00054C  C4F5 F4C1          	movff	tablat,1217	;volatile
  3430                           
  3431                           ;bootloader.c: 150:             }
  3432   000550  D011               	goto	i1l490
  3433   000552                     i1l2265:
  3434   000552  50CE               	movf	206,w,c	;volatile
  3435   000554  0B0F               	andlw	15
  3436   000556  0A02               	xorlw	2
  3437   000558  A4D8               	btfss	status,2,c
  3438   00055A  D002               	goto	i1l2269
  3439                           
  3440                           ;bootloader.c: 152:             {;bootloader.c: 153:                 LATD = crc >> 8;
  3441   00055C  5035               	movf	(_crc+1)^(0+1280),w,c
  3442   00055E  D009               	goto	L4
  3443   000560                     i1l2269:
  3444   000560  50CE               	movf	206,w,c	;volatile
  3445   000562  0B0F               	andlw	15
  3446   000564  0A03               	xorlw	3
  3447   000566  A4D8               	btfss	status,2,c
  3448   000568  D003               	goto	i1l2273
  3449                           
  3450                           ;bootloader.c: 156:             {;bootloader.c: 157:                 LATD = (uint8_t)crc
      +                          ;
  3451   00056A  C534  F4C1         	movff	_crc,1217	;volatile
  3452                           
  3453                           ;bootloader.c: 158:             }
  3454   00056E  D002               	goto	i1l490
  3455   000570                     i1l2273:
  3456                           
  3457                           ;bootloader.c: 160:             {;bootloader.c: 161:                 LATD = 0x4F;
  3458   000570  0E4F               	movlw	79
  3459   000572                     L4:
  3460   000572  6EC1               	movwf	193,c	;volatile
  3461   000574                     i1l490:
  3462                           
  3463                           ;bootloader.c: 163:             TRISD = 0;
  3464   000574  0E00               	movlw	0
  3465   000576  6EC9               	movwf	201,c	;volatile
  3466   000578                     i1l2275:
  3467                           
  3468                           ;bootloader.c: 165:         LATBbits.LATB3 = 1;
  3469   000578  86BF               	bsf	191,3,c	;volatile
  3470   00057A                     i1l497:
  3471   00057A  A2CF               	btfss	207,1,c	;volatile
  3472   00057C  D7FE               	goto	i1l497
  3473                           
  3474                           ;bootloader.c: 167:         TRISD = 255;
  3475   00057E  68C9               	setf	201,c	;volatile
  3476                           
  3477                           ;bootloader.c: 168:         LATBbits.LATB3 = 0;
  3478   000580  96BF               	bcf	191,3,c	;volatile
  3479   000582                     i1l485:
  3480                           
  3481                           ;bootloader.c: 170:     if(PIE3bits.TMR0IE == 1 && PIR3bits.TMR0IF == 1)
  3482   000582  BEA1               	btfsc	161,7,c	;volatile
  3483   000584  AEB1               	btfss	177,7,c	;volatile
  3484   000586  D004               	goto	i1l2285
  3485                           
  3486                           ;bootloader.c: 171:     {;bootloader.c: 172:         PIR3bits.TMR0IF = 0;
  3487   000588  9EB1               	bcf	177,7,c	;volatile
  3488                           
  3489                           ;bootloader.c: 173:         if(timeout)
  3490   00058A  5029               	movf	_timeout^(0+1280),w,c	;volatile
  3491   00058C  A4D8               	btfss	status,2,c
  3492                           
  3493                           ;bootloader.c: 174:             timeout--;
  3494   00058E  0629               	decf	_timeout^(0+1280),f,c	;volatile
  3495   000590                     i1l2285:
  3496                           
  3497                           ;bootloader.c: 176:     if(PIE4bits.U1TXIE && PIR4bits.U1TXIF) {
  3498   000590  B2A2               	btfsc	162,1,c	;volatile
  3499   000592  A2B2               	btfss	178,1,c	;volatile
  3500   000594  D002               	goto	i1l2291
  3501                           
  3502                           ;bootloader.c: 178:   serial_tx_int();
  3503   000596  ECC0  F005         	call	_serial_tx_int	;wreg free
  3504   00059A                     i1l2291:
  3505                           
  3506                           ;bootloader.c: 180:     if(PIE4bits.U1RXIE && PIR4bits.U1RXIF) {
  3507   00059A  B0A2               	btfsc	162,0,c	;volatile
  3508   00059C  A0B2               	btfss	178,0,c	;volatile
  3509   00059E  D002               	goto	i1l504
  3510                           
  3511                           ;bootloader.c: 182:   serial_rx_int();
  3512   0005A0  EC74  F005         	call	_serial_rx_int	;wreg free
  3513   0005A4                     i1l504:
  3514   0005A4  C508  F4F5         	movff	??_boot_int_lo+6,tablat
  3515   0005A8  C507  F4F8         	movff	??_boot_int_lo+5,tblptru
  3516   0005AC  C506  F4F7         	movff	??_boot_int_lo+4,tblptrh
  3517   0005B0  C505  F4F6         	movff	??_boot_int_lo+3,tblptrl
  3518   0005B4  C504  F4D8         	movff	??_boot_int_lo+2,status
  3519   0005B8  0011               	retfie		f
  3520   0005BA                     __end_of_boot_int_lo:
  3521                           	callstack 0
  3522                           
  3523 ;; *************** function i1_update_status *****************
  3524 ;; Defined at:
  3525 ;;		line 189 in file "bootloader.c"
  3526 ;; Parameters:    Size  Location     Type
  3527 ;;  status          1    wreg     unsigned char 
  3528 ;; Auto vars:     Size  Location     Type
  3529 ;;  status          1    0[COMRAM] unsigned char 
  3530 ;; Return value:  Size  Location     Type
  3531 ;;                  1    wreg      void 
  3532 ;; Registers used:
  3533 ;;		wreg, status,2
  3534 ;; Tracked objects:
  3535 ;;		On entry : 0/0
  3536 ;;		On exit  : 0/0
  3537 ;;		Unchanged: 0/0
  3538 ;; Data sizes:     COMRAM   BANK5   BANK6   BANK7   BANK8   BANK9  BANK10  BANK11  BANK12  BANK13  BANK14  BANK15  BANK1
      +6  BANK17  BANK18  BANK19  BANK20  BANK21  BANK22  BANK23  BANK24  BANK25  BANK26  BANK27  BANK28  BANK29  BANK30  BANK3
      +1  BANK32  BANK33  BANK34  BANK35  BANK36  BANK37  BANK38  BANK39  BANK40  BANK41  BANK42  BANK43  BANK44  BANK45  BANK4
      +6  BANK47  BANK48  BANK49  BANK50  BANK51  BANK52  BANK53  BANK54
  3539 ;;      Params:         0       0       0       0       0       0       0       0       0       0       0       0       
      +0       0       0       0       0       0       0       0       0       0       0       0       0       0       0       
      +0       0       0       0       0       0       0       0       0       0       0       0       0       0       0       
      +0       0       0       0       0       0       0       0       0
  3540 ;;      Locals:         1       0       0       0       0       0       0       0       0       0       0       0       
      +0       0       0       0       0       0       0       0       0       0       0       0       0       0       0       
      +0       0       0       0       0       0       0       0       0       0       0       0       0       0       0       
      +0       0       0       0       0       0       0       0       0
  3541 ;;      Temps:          0       0       0       0       0       0       0       0       0       0       0       0       
      +0       0       0       0       0       0       0       0       0       0       0       0       0       0       0       
      +0       0       0       0       0       0       0       0       0       0       0       0       0       0       0       
      +0       0       0       0       0       0       0       0       0
  3542 ;;      Totals:         1       0       0       0       0       0       0       0       0       0       0       0       
      +0       0       0       0       0       0       0       0       0       0       0       0       0       0       0       
      +0       0       0       0       0       0       0       0       0       0       0       0       0       0       0       
      +0       0       0       0       0       0       0       0       0
  3543 ;;Total ram usage:        1 bytes
  3544 ;; Hardware stack levels used: 1
  3545 ;; This function calls:
  3546 ;;		Nothing
  3547 ;; This function is called by:
  3548 ;;		_boot_int_lo
  3549 ;; This function uses a non-reentrant model
  3550 ;;
  3551                           
  3552                           	psect	text24
  3553   000BEA                     __ptext24:
  3554                           	callstack 0
  3555   000BEA                     i1_update_status:
  3556                           	callstack 119
  3557                           
  3558                           ;incstack = 0
  3559                           ;i1update_status@status stored from wreg
  3560   000BEA  6E01               	movwf	i1update_status@status^(0+1280),c
  3561                           
  3562                           ;bootloader.c: 189: void update_status(uint8_t status);bootloader.c: 190: {;bootloader.c
      +                          : 191:     SPI1CON2 = 0x1 | 0x2;
  3563   000BEC  0E03               	movlw	3
  3564   000BEE  0100               	movlb	0	; () banked
  3565   000BF0  6F86               	movwf	134,b	;volatile
  3566                           
  3567                           ;bootloader.c: 192:     SPI1TCNTL = 1;
  3568   000BF2  0E01               	movlw	1
  3569   000BF4  6F82               	movwf	130,b	;volatile
  3570                           
  3571                           ; BSR set to: 0
  3572                           ;bootloader.c: 193:     SPI1TXB = status;
  3573   000BF6  C501  F081         	movff	i1update_status@status,129	;volatile
  3574   000BFA                     i1l507:
  3575   000BFA  A0B1               	btfss	177,0,c	;volatile
  3576   000BFC  D7FE               	goto	i1l507
  3577                           
  3578                           ;bootloader.c: 195:     LATCbits.LATC0 = 1;
  3579   000BFE  80C0               	bsf	192,0,c	;volatile
  3580                           
  3581                           ;bootloader.c: 196:     SPI1RXB;
  3582   000C00  0100               	movlb	0	; () banked
  3583   000C02  5180               	movf	128,w,b	;volatile
  3584                           
  3585                           ;bootloader.c: 197:     LATCbits.LATC0 = 0;
  3586   000C04  90C0               	bcf	192,0,c	;volatile
  3587                           
  3588                           ; BSR set to: 0
  3589   000C06  0012               	return		;funcret
  3590   000C08                     __end_ofi1_update_status:
  3591                           	callstack 0
  3592                           
  3593 ;; *************** function _serial_tx_int *****************
  3594 ;; Defined at:
  3595 ;;		line 100 in file "serial.c"
  3596 ;; Parameters:    Size  Location     Type
  3597 ;;		None
  3598 ;; Auto vars:     Size  Location     Type
  3599 ;;		None
  3600 ;; Return value:  Size  Location     Type
  3601 ;;                  1    wreg      void 
  3602 ;; Registers used:
  3603 ;;		wreg, fsr2l, fsr2h, status,2, status,0
  3604 ;; Tracked objects:
  3605 ;;		On entry : 0/0
  3606 ;;		On exit  : 0/0
  3607 ;;		Unchanged: 0/0
  3608 ;; Data sizes:     COMRAM   BANK5   BANK6   BANK7   BANK8   BANK9  BANK10  BANK11  BANK12  BANK13  BANK14  BANK15  BANK1
      +6  BANK17  BANK18  BANK19  BANK20  BANK21  BANK22  BANK23  BANK24  BANK25  BANK26  BANK27  BANK28  BANK29  BANK30  BANK3
      +1  BANK32  BANK33  BANK34  BANK35  BANK36  BANK37  BANK38  BANK39  BANK40  BANK41  BANK42  BANK43  BANK44  BANK45  BANK4
      +6  BANK47  BANK48  BANK49  BANK50  BANK51  BANK52  BANK53  BANK54
  3609 ;;      Params:         0       0       0       0       0       0       0       0       0       0       0       0       
      +0       0       0       0       0       0       0       0       0       0       0       0       0       0       0       
      +0       0       0       0       0       0       0       0       0       0       0       0       0       0       0       
      +0       0       0       0       0       0       0       0       0
  3610 ;;      Locals:         0       0       0       0       0       0       0       0       0       0       0       0       
      +0       0       0       0       0       0       0       0       0       0       0       0       0       0       0       
      +0       0       0       0       0       0       0       0       0       0       0       0       0       0       0       
      +0       0       0       0       0       0       0       0       0
  3611 ;;      Temps:          0       0       0       0       0       0       0       0       0       0       0       0       
      +0       0       0       0       0       0       0       0       0       0       0       0       0       0       0       
      +0       0       0       0       0       0       0       0       0       0       0       0       0       0       0       
      +0       0       0       0       0       0       0       0       0
  3612 ;;      Totals:         0       0       0       0       0       0       0       0       0       0       0       0       
      +0       0       0       0       0       0       0       0       0       0       0       0       0       0       0       
      +0       0       0       0       0       0       0       0       0       0       0       0       0       0       0       
      +0       0       0       0       0       0       0       0       0
  3613 ;;Total ram usage:        0 bytes
  3614 ;; Hardware stack levels used: 1
  3615 ;; This function calls:
  3616 ;;		Nothing
  3617 ;; This function is called by:
  3618 ;;		_boot_int_lo
  3619 ;; This function uses a non-reentrant model
  3620 ;;
  3621                           
  3622                           	psect	text25
  3623   000B80                     __ptext25:
  3624                           	callstack 0
  3625   000B80                     _serial_tx_int:
  3626                           	callstack 119
  3627                           
  3628                           ;serial.c: 102: {
  3629                           
  3630                           ; BSR set to: 0
  3631                           ;incstack = 0
  3632   000B80  5030               	movf	_tx_count^(0+1280),w,c
  3633   000B82  A4D8               	btfss	status,2,c
  3634   000B84  D002               	goto	i1l2057
  3635                           
  3636                           ;serial.c: 104: }
  3637   000B86  92A2               	bcf	162,1,c	;volatile
  3638                           
  3639                           ;serial.c: 105: 
  3640   000B88  0012               	return	
  3641   000B8A                     i1l2057:
  3642                           
  3643                           ;serial.c: 107: {
  3644   000B8A  0E60               	movlw	low _serial_out
  3645   000B8C  242E               	addwf	_tx_out^(0+1280),w,c
  3646   000B8E  6ED9               	movwf	fsr2l,c
  3647   000B90  6ADA               	clrf	fsr2h,c
  3648   000B92  0E05               	movlw	high _serial_out
  3649   000B94  22DA               	addwfc	fsr2h,f,c
  3650   000B96  50DF               	movf	indf2,w,c
  3651   000B98  0102               	movlb	2	; () banked
  3652   000B9A  6FA3               	movwf	163,b	;volatile
  3653                           
  3654                           ; BSR set to: 2
  3655                           ;serial.c: 108:  if (U1ERRIRbits.RXFOIF) {
  3656   000B9C  2A2E               	incf	_tx_out^(0+1280),f,c
  3657   000B9E  0E80               	movlw	128
  3658   000BA0  182E               	xorwf	_tx_out^(0+1280),w,c
  3659   000BA2  A4D8               	btfss	status,2,c
  3660   000BA4  D002               	goto	i1l2063
  3661                           
  3662                           ; BSR set to: 2
  3663                           ;serial.c: 109: 
  3664   000BA6  0E00               	movlw	0
  3665   000BA8  6E2E               	movwf	_tx_out^(0+1280),c
  3666   000BAA                     i1l2063:
  3667                           
  3668                           ; BSR set to: 2
  3669                           ;serial.c: 111: 
  3670   000BAA  0630               	decf	_tx_count^(0+1280),f,c
  3671   000BAC  0012               	return		;funcret
  3672   000BAE                     __end_of_serial_tx_int:
  3673                           	callstack 0
  3674                           
  3675 ;; *************** function _serial_rx_int *****************
  3676 ;; Defined at:
  3677 ;;		line 138 in file "serial.c"
  3678 ;; Parameters:    Size  Location     Type
  3679 ;;		None
  3680 ;; Auto vars:     Size  Location     Type
  3681 ;;		None
  3682 ;; Return value:  Size  Location     Type
  3683 ;;                  1    wreg      void 
  3684 ;; Registers used:
  3685 ;;		wreg, fsr2l, fsr2h, status,2, status,0
  3686 ;; Tracked objects:
  3687 ;;		On entry : 0/0
  3688 ;;		On exit  : 0/0
  3689 ;;		Unchanged: 0/0
  3690 ;; Data sizes:     COMRAM   BANK5   BANK6   BANK7   BANK8   BANK9  BANK10  BANK11  BANK12  BANK13  BANK14  BANK15  BANK1
      +6  BANK17  BANK18  BANK19  BANK20  BANK21  BANK22  BANK23  BANK24  BANK25  BANK26  BANK27  BANK28  BANK29  BANK30  BANK3
      +1  BANK32  BANK33  BANK34  BANK35  BANK36  BANK37  BANK38  BANK39  BANK40  BANK41  BANK42  BANK43  BANK44  BANK45  BANK4
      +6  BANK47  BANK48  BANK49  BANK50  BANK51  BANK52  BANK53  BANK54
  3691 ;;      Params:         0       0       0       0       0       0       0       0       0       0       0       0       
      +0       0       0       0       0       0       0       0       0       0       0       0       0       0       0       
      +0       0       0       0       0       0       0       0       0       0       0       0       0       0       0       
      +0       0       0       0       0       0       0       0       0
  3692 ;;      Locals:         0       0       0       0       0       0       0       0       0       0       0       0       
      +0       0       0       0       0       0       0       0       0       0       0       0       0       0       0       
      +0       0       0       0       0       0       0       0       0       0       0       0       0       0       0       
      +0       0       0       0       0       0       0       0       0
  3693 ;;      Temps:          0       0       0       0       0       0       0       0       0       0       0       0       
      +0       0       0       0       0       0       0       0       0       0       0       0       0       0       0       
      +0       0       0       0       0       0       0       0       0       0       0       0       0       0       0       
      +0       0       0       0       0       0       0       0       0
  3694 ;;      Totals:         0       0       0       0       0       0       0       0       0       0       0       0       
      +0       0       0       0       0       0       0       0       0       0       0       0       0       0       0       
      +0       0       0       0       0       0       0       0       0       0       0       0       0       0       0       
      +0       0       0       0       0       0       0       0       0
  3695 ;;Total ram usage:        0 bytes
  3696 ;; Hardware stack levels used: 1
  3697 ;; This function calls:
  3698 ;;		Nothing
  3699 ;; This function is called by:
  3700 ;;		_boot_int_lo
  3701 ;; This function uses a non-reentrant model
  3702 ;;
  3703                           
  3704                           	psect	text26
  3705   000AE8                     __ptext26:
  3706                           	callstack 0
  3707   000AE8                     _serial_rx_int:
  3708                           	callstack 119
  3709                           
  3710                           ;serial.c: 140:  INTCON0bits.GIEL = 1;
  3711                           
  3712                           ;incstack = 0
  3713   000AE8  0102               	movlb	2	; () banked
  3714   000AEA  51B2               	movf	178,w,b	;volatile
  3715                           
  3716                           ; BSR set to: 2
  3717                           ;serial.c: 145: 
  3718                           
  3719                           ;serial.c: 144: 
  3720   000AEC  B7B2               	btfsc	178,3,b	;volatile
  3721   000AEE  D014               	goto	i1l303
  3722                           
  3723                           ; BSR set to: 2
  3724                           ;serial.c: 146: void usart_puts(const __rom char *str)
  3725   000AF0  0E80               	movlw	128
  3726   000AF2  602D               	cpfslt	_rx_count^(0+1280),c
  3727   000AF4  D011               	goto	i1l303
  3728                           
  3729                           ; BSR set to: 2
  3730                           ;serial.c: 147: {
  3731   000AF6  0E00               	movlw	low _serial_in
  3732   000AF8  242C               	addwf	_rx_in^(0+1280),w,c
  3733   000AFA  6ED9               	movwf	fsr2l,c
  3734   000AFC  6ADA               	clrf	fsr2h,c
  3735   000AFE  0E06               	movlw	high _serial_in
  3736   000B00  22DA               	addwfc	fsr2h,f,c
  3737   000B02  C2A1 F4DF          	movff	673,indf2	;volatile
  3738                           
  3739                           ; BSR set to: 2
  3740                           ;serial.c: 148:  while (*str) {
  3741   000B06  2A2C               	incf	_rx_in^(0+1280),f,c
  3742   000B08  0E80               	movlw	128
  3743   000B0A  182C               	xorwf	_rx_in^(0+1280),w,c
  3744   000B0C  A4D8               	btfss	status,2,c
  3745   000B0E  D002               	goto	i1l2075
  3746                           
  3747                           ; BSR set to: 2
  3748                           ;serial.c: 149:   usart_send(*(str++));
  3749   000B10  0E00               	movlw	0
  3750   000B12  6E2C               	movwf	_rx_in^(0+1280),c
  3751   000B14                     i1l2075:
  3752                           
  3753                           ; BSR set to: 2
  3754                           ;serial.c: 151: }
  3755   000B14  2A2D               	incf	_rx_count^(0+1280),f,c
  3756   000B16  0012               	return	
  3757   000B18                     i1l303:
  3758                           
  3759                           ; BSR set to: 2
  3760                           ;serial.c: 157:  usart_send('\n');
  3761   000B18  C2A1 F52A          	movff	673,_discard	;volatile
  3762                           
  3763                           ; BSR set to: 2
  3764                           
  3765                           ;serial.c: 159: 
  3766   000B1C  0012               	return		;funcret
  3767   000B1E                     __end_of_serial_rx_int:
  3768                           	callstack 0
  3769                           
  3770                           ;
  3771                           ; H/W Interrupt Vector Table @ 0x8
  3772                           ;
  3773                           
  3774                           	psect	ivt0x8
  3775   000008                     __pivt0x8:
  3776                           	callstack 0
  3777   000008                     ivt0x8_base:
  3778                           	callstack 0
  3779                           
  3780                           ; high-priority vector
  3781   000018                     	org	16
  3782                           
  3783                           ; low-priority vector
  3784   000018  EF64  F002         	goto	_boot_int_lo
  3785   000000                     
  3786                           	psect	rparam
  3787   000000                     
  3788                           	psect	config
  3789                           
  3790                           ;Config register CONFIG1 @ 0x300000
  3791                           ;	External Oscillator Selection
  3792                           ;	FEXTOSC = HS, HS (crystal oscillator) above 8 MHz
  3793                           ;	Reset Oscillator Selection
  3794                           ;	RSTOSC = EXTOSC_4PLL, EXTOSC with 4x PLL, with EXTOSC operating per FEXTOSC bits
  3795   300000                     	org	3145728
  3796   300000  AA                 	db	170
  3797                           
  3798                           ;Config register CONFIG2 @ 0x300001
  3799                           ;	Clock out Enable bit
  3800                           ;	CLKOUTEN = OFF, CLKOUT function is disabled
  3801                           ;	PRLOCKED One-Way Set Enable bit
  3802                           ;	PR1WAY = ON, PRLOCKED bit can be cleared and set only once
  3803                           ;	Clock Switch Enable bit
  3804                           ;	CSWEN = ON, Writing to NOSC and NDIV is allowed
  3805                           ;	JTAG Enable bit
  3806                           ;	JTAGEN = OFF, Disable JTAG Boundary Scan mode, JTAG pins revert to user functions
  3807                           ;	Fail-Safe Clock Monitor Enable bit
  3808                           ;	FCMEN = ON, Fail-Safe Clock Monitor enabled
  3809                           ;	Fail-Safe Clock Monitor -Primary XTAL Enable bit
  3810                           ;	FCMENP = ON, FSCM timer will set FSCMP bit and OSFIF interrupt on Primary XTAL failure
  3811                           ;	Fail-Safe Clock Monitor -Secondary XTAL Enable bit
  3812                           ;	FCMENS = ON, FSCM timer will set FSCMS bit and OSFIF interrupt on Secondary XTAL failu
      +                          re
  3813   300001                     	org	3145729
  3814   300001  EF                 	db	239
  3815                           
  3816                           ;Config register CONFIG3 @ 0x300002
  3817                           ;	MCLR Enable bit
  3818                           ;	MCLRE = EXTMCLR, If LVP = 0, MCLR pin is MCLR; If LVP = 1, RE3 pin function is MCLR
  3819                           ;	Power-up timer selection bits
  3820                           ;	PWRTS = PWRT_OFF, PWRT is disabled
  3821                           ;	Multi-vector enable bit
  3822                           ;	MVECEN = OFF, Interrupt contoller does not use vector table to prioritze interrupts
  3823                           ;	IVTLOCK bit One-way set enable bit
  3824                           ;	IVT1WAY = ON, IVTLOCKED bit can be cleared and set only once
  3825                           ;	Low Power BOR Enable bit
  3826                           ;	LPBOREN = OFF, Low-Power BOR disabled
  3827                           ;	Brown-out Reset Enable bits
  3828                           ;	BOREN = SBORDIS, Brown-out Reset enabled , SBOREN bit is ignored
  3829   300002                     	org	3145730
  3830   300002  F7                 	db	247
  3831                           
  3832                           ;Config register CONFIG4 @ 0x300003
  3833                           ;	Brown-out Reset Voltage Selection bits
  3834                           ;	BORV = VBOR_1P9, Brown-out Reset Voltage (VBOR) set to 1.9V
  3835                           ;	ZCD Disable bit
  3836                           ;	ZCD = OFF, ZCD module is disabled. ZCD can be enabled by setting the ZCDSEN bit of ZCD
      +                          CON
  3837                           ;	PPSLOCK bit One-Way Set Enable bit
  3838                           ;	PPS1WAY = ON, PPSLOCKED bit can be cleared and set only once; PPS registers remain loc
      +                          ked after one clear/set cycle
  3839                           ;	Stack Full/Underflow Reset Enable bit
  3840                           ;	STVREN = ON, Stack full/underflow will cause Reset
  3841                           ;	Low Voltage Programming Enable bit
  3842                           ;	LVP = ON, Low voltage programming enabled. MCLR/VPP pin function is MCLR. MCLRE config
      +                          uration bit is ignored
  3843                           ;	Extended Instruction Set Enable bit
  3844                           ;	XINST = OFF, Extended Instruction Set and Indexed Addressing Mode disabled
  3845   300003                     	org	3145731
  3846   300003  FF                 	db	255
  3847                           
  3848                           ;Config register CONFIG5 @ 0x300004
  3849                           ;	WDT Period selection bits
  3850                           ;	WDTCPS = WDTCPS_31, Divider ratio 1:65536; software control of WDTPS
  3851                           ;	WDT operating mode
  3852                           ;	WDTE = OFF, WDT Disabled; SWDTEN is ignored
  3853   300004                     	org	3145732
  3854   300004  9F                 	db	159
  3855                           
  3856                           ;Config register CONFIG6 @ 0x300005
  3857                           ;	WDT Window Select bits
  3858                           ;	WDTCWS = WDTCWS_7, window always open (100%); software control; keyed access not requi
      +                          red
  3859                           ;	WDT input clock selector
  3860                           ;	WDTCCS = SC, Software Control
  3861   300005                     	org	3145733
  3862   300005  FF                 	db	255
  3863                           
  3864                           ;Config register CONFIG7 @ 0x300006
  3865                           ;	Boot Block Size selection bits
  3866                           ;	BBSIZE = BBSIZE_512, Boot Block size is 512 words
  3867                           ;	Boot Block enable bit
  3868                           ;	BBEN = OFF, Boot block disabled
  3869                           ;	Storage Area Flash enable bit
  3870                           ;	SAFEN = OFF, SAF disabled
  3871                           ;	Background Debugger
  3872                           ;	DEBUG = 0x1, unprogrammed default
  3873   300006                     	org	3145734
  3874   300006  FF                 	db	255
  3875                           
  3876                           ;Config register CONFIG8 @ 0x300007
  3877                           ;	Boot Block Write Protection bit
  3878                           ;	WRTB = OFF, Boot Block not Write protected
  3879                           ;	Configuration Register Write Protection bit
  3880                           ;	WRTC = OFF, Configuration registers not Write protected
  3881                           ;	Data EEPROM Write Protection bit
  3882                           ;	WRTD = OFF, Data EEPROM not Write protected
  3883                           ;	SAF Write protection bit
  3884                           ;	WRTSAF = OFF, SAF not Write Protected
  3885                           ;	Application Block write protection bit
  3886                           ;	WRTAPP = OFF, Application Block not write protected
  3887   300007                     	org	3145735
  3888   300007  FF                 	db	255
  3889                           
  3890                           ;Config register CONFIG9 @ 0x300008
  3891                           ;	CRC on boot output pin selection
  3892                           ;	BOOTPINSEL = RC5, CRC on boot output pin is RC5
  3893                           ;	CRC on boot output pin enable bit
  3894                           ;	BPEN = OFF, CRC on boot output pin disabled
  3895                           ;	CRC on boot output pin open drain bit
  3896                           ;	ODCON = OFF, Pin drives both high-going and low-going signals
  3897   300008                     	org	3145736
  3898   300008  FF                 	db	255
  3899                           
  3900                           ;Config register CONFIG10 @ 0x300009
  3901                           ;	PFM and Data EEPROM Code Protection bit
  3902                           ;	CP = OFF, PFM and Data EEPROM code protection disabled
  3903   300009                     	org	3145737
  3904   300009  FF                 	db	255
  3905                           
  3906                           ;Config register CONFIG11 @ 0x30000A
  3907                           ;	CRC on boot scan enable for boot area
  3908                           ;	BOOTSCEN = OFF, CRC on boot will not include the boot area of program memory in its ca
      +                          lculation
  3909                           ;	CRC on boot Continue on Error for boot areas bit
  3910                           ;	BOOTCOE = HALT, CRC on boot will stop device if error is detected in boot areas
  3911                           ;	CRC on boot application code scan enable
  3912                           ;	APPSCEN = OFF, CRC on boot will not include the application area of program memory in 
      +                          its calculation
  3913                           ;	CRC on boot SAF area scan enable
  3914                           ;	SAFSCEN = OFF, CRC on boot will not include the SAF area of program memory in its calc
      +                          ulation
  3915                           ;	CRC on boot Data EEPROM scan enable
  3916                           ;	DATASCEN = OFF, CRC on boot will not include data EEPROM in its calculation
  3917                           ;	CRC on boot Config fuses scan enable
  3918                           ;	CFGSCEN = OFF, CRC on boot will not include the configuration fuses in its calculation
  3919                           ;	CRC on boot Continue on Error for non-boot areas bit
  3920                           ;	COE = HALT, CRC on boot will stop device if error is detected in non-boot areas
  3921                           ;	Boot on CRC Enable bit
  3922                           ;	BOOTPOR = OFF, CRC on boot will not run
  3923   30000A                     	org	3145738
  3924   30000A  FF                 	db	255
  3925                           
  3926                           ;Config register CONFIG12 @ 0x30000B
  3927                           ;	Boot Sector Polynomial for CRC on boot bits 31-24
  3928                           ;	BCRCPOLT = hFF, Bits 31:24 of BCRCPOL are 0xFF
  3929   30000B                     	org	3145739
  3930   30000B  FF                 	db	255
  3931                           
  3932                           ;Config register CONFIG13 @ 0x30000C
  3933                           ;	Boot Sector Polynomial for CRC on boot bits 23-16
  3934                           ;	BCRCPOLU = hFF, Bits 23:16 of BCRCPOL are 0xFF
  3935   30000C                     	org	3145740
  3936   30000C  FF                 	db	255
  3937                           
  3938                           ;Config register CONFIG14 @ 0x30000D
  3939                           ;	Boot Sector Polynomial for CRC on boot bits 15-8
  3940                           ;	BCRCPOLH = hFF, Bits 15:8 of BCRCPOL are 0xFF
  3941   30000D                     	org	3145741
  3942   30000D  FF                 	db	255
  3943                           
  3944                           ;Config register CONFIG15 @ 0x30000E
  3945                           ;	Boot Sector Polynomial for CRC on boot bits 7-0
  3946                           ;	BCRCPOLL = hFF, Bits 7:0 of BCRCPOL are 0xFF
  3947   30000E                     	org	3145742
  3948   30000E  FF                 	db	255
  3949                           
  3950                           ;Config register CONFIG16 @ 0x30000F
  3951                           ;	Boot Sector Seed for CRC on boot bits 31-24
  3952                           ;	BCRCSEEDT = hFF, Bits 31:24 of BCRCSEED are 0xFF
  3953   30000F                     	org	3145743
  3954   30000F  FF                 	db	255
  3955                           
  3956                           ;Config register CONFIG17 @ 0x300010
  3957                           ;	Boot Sector Seed for CRC on boot bits 23-16
  3958                           ;	BCRCSEEDU = hFF, Bits 23:16 of BCRCSEED are 0xFF
  3959   300010                     	org	3145744
  3960   300010  FF                 	db	255
  3961                           
  3962                           ;Config register CONFIG18 @ 0x300011
  3963                           ;	Boot Sector Seed for CRC on boot bits 15-8
  3964                           ;	BCRCSEEDH = hFF, Bits 15:8 of BCRCSEED are 0xFF
  3965   300011                     	org	3145745
  3966   300011  FF                 	db	255
  3967                           
  3968                           ;Config register CONFIG19 @ 0x300012
  3969                           ;	Boot Sector Seed for CRC on boot bits 7-0
  3970                           ;	BCRCSEEDL = hFF, Bits 7:0 of BCRCSEED are 0xFF
  3971   300012                     	org	3145746
  3972   300012  FF                 	db	255
  3973                           
  3974                           ;Config register CONFIG20 @ 0x300013
  3975                           ;	Boot Sector Expected Result for CRC on boot bits 31-24
  3976                           ;	BCRCEREST = hFF, Bits 31:24 of BCRCERES are 0xFF
  3977   300013                     	org	3145747
  3978   300013  FF                 	db	255
  3979                           
  3980                           ;Config register CONFIG21 @ 0x300014
  3981                           ;	Boot Sector Expected Result for CRC on boot bits 23-16
  3982                           ;	BCRCERESU = hFF, Bits 23:16 of BCRCERES are 0xFF
  3983   300014                     	org	3145748
  3984   300014  FF                 	db	255
  3985                           
  3986                           ;Config register CONFIG22 @ 0x300015
  3987                           ;	Boot Sector Expected Result for CRC on boot bits 15-8
  3988                           ;	BCRCERESH = hFF, Bits 15:8 of BCRCERES are 0xFF
  3989   300015                     	org	3145749
  3990   300015  FF                 	db	255
  3991                           
  3992                           ;Config register CONFIG23 @ 0x300016
  3993                           ;	Boot Sector Expected Result for CRC on boot bits 7-0
  3994                           ;	BCRCERESL = hFF, Bits 7:0 of BCRCERES are 0xFF
  3995   300016                     	org	3145750
  3996   300016  FF                 	db	255
  3997                           
  3998                           ;Config register CONFIG24 @ 0x300017
  3999                           ;	Non-Boot Sector Polynomial for CRC on boot bits 31-24
  4000                           ;	CRCPOLT = hFF, Bits 31:24 of CRCPOL are 0xFF
  4001   300017                     	org	3145751
  4002   300017  FF                 	db	255
  4003                           
  4004                           ;Config register CONFIG25 @ 0x300018
  4005                           ;	Non-Boot Sector Polynomial for CRC on boot bits 23-16
  4006                           ;	CRCPOLU = hFF, Bits 23:16 of CRCPOL are 0xFF
  4007   300018                     	org	3145752
  4008   300018  FF                 	db	255
  4009                           
  4010                           ;Config register CONFIG26 @ 0x300019
  4011                           ;	Non-Boot Sector Polynomial for CRC on boot bits 15-8
  4012                           ;	CRCPOLH = hFF, Bits 15:8 of CRCPOL are 0xFF
  4013   300019                     	org	3145753
  4014   300019  FF                 	db	255
  4015                           
  4016                           ;Config register CONFIG27 @ 0x30001A
  4017                           ;	Non-Boot Sector Polynomial for CRC on boot bits 7-0
  4018                           ;	CRCPOLL = hFF, Bits 7:0 of CRCPOL are 0xFF
  4019   30001A                     	org	3145754
  4020   30001A  FF                 	db	255
  4021                           
  4022                           ;Config register CONFIG28 @ 0x30001B
  4023                           ;	Non-Boot Sector Seed for CRC on boot bits 31-24
  4024                           ;	CRCSEEDT = hFF, Bits 31:24 of CRCSEED are 0xFF
  4025   30001B                     	org	3145755
  4026   30001B  FF                 	db	255
  4027                           
  4028                           ;Config register CONFIG29 @ 0x30001C
  4029                           ;	Non-Boot Sector Seed for CRC on boot bits 23-16
  4030                           ;	CRCSEEDU = hFF, Bits 23:16 of CRCSEED are 0xFF
  4031   30001C                     	org	3145756
  4032   30001C  FF                 	db	255
  4033                           
  4034                           ;Config register CONFIG30 @ 0x30001D
  4035                           ;	Non-Boot Sector Seed for CRC on boot bits 15-8
  4036                           ;	CRCSEEDH = hFF, Bits 15:8 of CRCSEED are 0xFF
  4037   30001D                     	org	3145757
  4038   30001D  FF                 	db	255
  4039                           
  4040                           ;Config register CONFIG31 @ 0x30001E
  4041                           ;	Non-Boot Sector Seed for CRC on boot bits 7-0
  4042                           ;	CRCSEEDL = hFF, Bits 7:0 of CRCSEED are 0xFF
  4043   30001E                     	org	3145758
  4044   30001E  FF                 	db	255
  4045                           
  4046                           ;Config register CONFIG32 @ 0x30001F
  4047                           ;	Non-Boot Sector Expected Result for CRC on boot bits 31-24
  4048                           ;	CRCEREST = hFF, Bits 31:24 of CRCERES are 0xFF
  4049   30001F                     	org	3145759
  4050   30001F  FF                 	db	255
  4051                           
  4052                           ;Config register CONFIG33 @ 0x300020
  4053                           ;	Non-Boot Sector Expected Result for CRC on boot bits 23-16
  4054                           ;	CRCERESU = hFF, Bits 23:16 of CRCERES are 0xFF
  4055   300020                     	org	3145760
  4056   300020  FF                 	db	255
  4057                           
  4058                           ;Config register CONFIG34 @ 0x300021
  4059                           ;	Non-Boot Sector Expected Result for CRC on boot bits 15-8
  4060                           ;	CRCERESH = hFF, Bits 15:8 of CRCERES are 0xFF
  4061   300021                     	org	3145761
  4062   300021  FF                 	db	255
  4063                           
  4064                           ;Config register CONFIG35 @ 0x300022
  4065                           ;	Non-Boot Sector Expected Result for CRC on boot bits 7-0
  4066                           ;	CRCERESL = hFF, Bits 7:0 of CRCERES are 0xFF
  4067   300022                     	org	3145762
  4068   300022  FF                 	db	255
  4069                           tosu	equ	0x4FF
  4070                           tosh	equ	0x4FE
  4071                           tosl	equ	0x4FD
  4072                           stkptr	equ	0x4FC
  4073                           pclatu	equ	0x4FB
  4074                           pclath	equ	0x4FA
  4075                           pcl	equ	0x4F9
  4076                           tblptru	equ	0x4F8
  4077                           tblptrh	equ	0x4F7
  4078                           tblptrl	equ	0x4F6
  4079                           tablat	equ	0x4F5
  4080                           prodh	equ	0x4F4
  4081                           prodl	equ	0x4F3
  4082                           indf0	equ	0x4EF
  4083                           postinc0	equ	0x4EE
  4084                           postdec0	equ	0x4ED
  4085                           preinc0	equ	0x4EC
  4086                           plusw0	equ	0x4EB
  4087                           fsr0h	equ	0x4EA
  4088                           fsr0l	equ	0x4E9
  4089                           wreg	equ	0x4E8
  4090                           indf1	equ	0x4E7
  4091                           postinc1	equ	0x4E6
  4092                           postdec1	equ	0x4E5
  4093                           preinc1	equ	0x4E4
  4094                           plusw1	equ	0x4E3
  4095                           fsr1h	equ	0x4E2
  4096                           fsr1l	equ	0x4E1
  4097                           bsr	equ	0x4E0
  4098                           indf2	equ	0x4DF
  4099                           postinc2	equ	0x4DE
  4100                           postdec2	equ	0x4DD
  4101                           preinc2	equ	0x4DC
  4102                           plusw2	equ	0x4DB
  4103                           fsr2h	equ	0x4DA
  4104                           fsr2l	equ	0x4D9
  4105                           status	equ	0x4D8

Data Sizes:
    Strings     29
    Constant    12
    Data        0
    BSS         533
    Persistent  5
    Stack       0

Auto Spaces:
    Space          Size  Autos    Used
    COMRAM           95     30      56
    BANK5           160      0     128
    BANK6           256      0     128
    BANK7           256      0     256
    BANK8           256      0       0
    BANK9           256      0       0
    BANK10          256      0       0
    BANK11          256      0       0
    BANK12          256      0       0
    BANK13          256      0       0
    BANK14          256      0       0
    BANK15          256      0       0
    BANK16          256      0       0
    BANK17          256      0       0
    BANK18          256      0       0
    BANK19          256      0       0
    BANK20          256      0       0
    BANK21          256      0       0
    BANK22          256      0       0
    BANK23          256      0       0
    BANK24          256      0       0
    BANK25          256      0       0
    BANK26          256      0       0
    BANK27          256      0       0
    BANK28          256      0       0
    BANK29          256      0       0
    BANK30          256      0       0
    BANK31          256      0       0
    BANK32          256      0       0
    BANK33          256      0       0
    BANK34          256      0       0
    BANK35          256      0       0
    BANK36          256      0       0
    BANK37          256      0       0
    BANK38          256      0       0
    BANK39          256      0       0
    BANK40          256      0       0
    BANK41          256      0       0
    BANK42          256      0       0
    BANK43          256      0       0
    BANK44          256      0       0
    BANK45          256      0       0
    BANK46          256      0       0
    BANK47          256      0       0
    BANK48          256      0       0
    BANK49          256      0       0
    BANK50          256      0       0
    BANK51          256      0       0
    BANK52          256      0       0
    BANK53          256      0       0
    BANK54          256      0       0

Pointer List with Targets:

    S108$4$0	PTR FTN()void  size(2) Largest target is 1
		 -> TMR0_DefaultOverflowCallback(), 

    S108TMR_INTERFACE$Initialize	PTR FTN()void  size(2) Largest target is 1
		 -> TMR0_Initialize(), 

    S108TMR_INTERFACE$PeriodCountSet	PTR FTN(unsigned int ,)void  size(2) Largest target is 1
		 -> TMR0_PeriodCountSet(), 

    S108TMR_INTERFACE$Start	PTR FTN()void  size(2) Largest target is 1
		 -> TMR0_Start(), 

    S108TMR_INTERFACE$Stop	PTR FTN()void  size(2) Largest target is 1
		 -> TMR0_Stop(), 

    S108TMR_INTERFACE$Tasks	PTR FTN()void  size(2) Largest target is 1
		 -> NULL(), 

    S108TMR_INTERFACE$TimeoutCallbackRegister	PTR FTN(PTR FTN()void ,)void  size(2) Largest target is 1
		 -> TMR0_OverflowCallbackRegister(), 

    Timer0$Initialize	PTR FTN()void  size(2) Largest target is 1
		 -> TMR0_Initialize(), 

    Timer0$PeriodCountSet	PTR FTN(unsigned int ,)void  size(2) Largest target is 1
		 -> TMR0_PeriodCountSet(), 

    Timer0$Start	PTR FTN()void  size(2) Largest target is 1
		 -> TMR0_Start(), 

    Timer0$Stop	PTR FTN()void  size(2) Largest target is 1
		 -> TMR0_Stop(), 

    Timer0$Tasks	PTR FTN()void  size(2) Largest target is 1
		 -> NULL(), 

    Timer0$TimeoutCallbackRegister	PTR FTN(PTR FTN()void ,)void  size(2) Largest target is 1
		 -> TMR0_OverflowCallbackRegister(), 

    TMR0_OverflowCallback	PTR FTN()void  size(2) Largest target is 1
		 -> TMR0_DefaultOverflowCallback(), NULL(), 

    TMR0_OverflowCallbackRegister@CallbackHandler	PTR FTN()void  size(2) Largest target is 1
		 -> TMR0_DefaultOverflowCallback(), 

    usart_puts2_r@str	PTR const unsigned char  size(3) Largest target is 256
		 -> BUFX(BANK7[256]), STR_1(CODE[14]), STR_2(CODE[15]), 

    usart_puts_r@str	PTR const unsigned char  size(3) Largest target is 256
		 -> BUFX(BANK7[256]), STR_1(CODE[14]), STR_2(CODE[15]), 


Critical Paths under _main in COMRAM

    _main->_b_process
    _b_process->_b_last
    _usart_put_short->_usart_put_hex
    _erase_flash->_usart_puts2_r
    _erase_eeprom->_usart_puts2_r
    _usart_puts2_r->_usart_puts_r
    _usart_puts_r->_usart_send
    _b_last->_b_write_block
    _b_write_block->_usart_put_long
    _usart_put_long->_usart_put_hex
    _usart_put_hex->_usart_send
    _SYSTEM_Initialize->_TMR0_Initialize
    _TMR0_Initialize->_TMR0_OverflowCallbackRegister

Critical Paths under _boot_int_lo in COMRAM

    _boot_int_lo->i1_update_status

Critical Paths under _main in BANK5

    None.

Critical Paths under _boot_int_lo in BANK5

    None.

Critical Paths under _main in BANK6

    None.

Critical Paths under _boot_int_lo in BANK6

    None.

Critical Paths under _main in BANK7

    None.

Critical Paths under _boot_int_lo in BANK7

    None.

Critical Paths under _main in BANK8

    None.

Critical Paths under _boot_int_lo in BANK8

    None.

Critical Paths under _main in BANK9

    None.

Critical Paths under _boot_int_lo in BANK9

    None.

Critical Paths under _main in BANK10

    None.

Critical Paths under _boot_int_lo in BANK10

    None.

Critical Paths under _main in BANK11

    None.

Critical Paths under _boot_int_lo in BANK11

    None.

Critical Paths under _main in BANK12

    None.

Critical Paths under _boot_int_lo in BANK12

    None.

Critical Paths under _main in BANK13

    None.

Critical Paths under _boot_int_lo in BANK13

    None.

Critical Paths under _main in BANK14

    None.

Critical Paths under _boot_int_lo in BANK14

    None.

Critical Paths under _main in BANK15

    None.

Critical Paths under _boot_int_lo in BANK15

    None.

Critical Paths under _main in BANK16

    None.

Critical Paths under _boot_int_lo in BANK16

    None.

Critical Paths under _main in BANK17

    None.

Critical Paths under _boot_int_lo in BANK17

    None.

Critical Paths under _main in BANK18

    None.

Critical Paths under _boot_int_lo in BANK18

    None.

Critical Paths under _main in BANK19

    None.

Critical Paths under _boot_int_lo in BANK19

    None.

Critical Paths under _main in BANK20

    None.

Critical Paths under _boot_int_lo in BANK20

    None.

Critical Paths under _main in BANK21

    None.

Critical Paths under _boot_int_lo in BANK21

    None.

Critical Paths under _main in BANK22

    None.

Critical Paths under _boot_int_lo in BANK22

    None.

Critical Paths under _main in BANK23

    None.

Critical Paths under _boot_int_lo in BANK23

    None.

Critical Paths under _main in BANK24

    None.

Critical Paths under _boot_int_lo in BANK24

    None.

Critical Paths under _main in BANK25

    None.

Critical Paths under _boot_int_lo in BANK25

    None.

Critical Paths under _main in BANK26

    None.

Critical Paths under _boot_int_lo in BANK26

    None.

Critical Paths under _main in BANK27

    None.

Critical Paths under _boot_int_lo in BANK27

    None.

Critical Paths under _main in BANK28

    None.

Critical Paths under _boot_int_lo in BANK28

    None.

Critical Paths under _main in BANK29

    None.

Critical Paths under _boot_int_lo in BANK29

    None.

Critical Paths under _main in BANK30

    None.

Critical Paths under _boot_int_lo in BANK30

    None.

Critical Paths under _main in BANK31

    None.

Critical Paths under _boot_int_lo in BANK31

    None.

Critical Paths under _main in BANK32

    None.

Critical Paths under _boot_int_lo in BANK32

    None.

Critical Paths under _main in BANK33

    None.

Critical Paths under _boot_int_lo in BANK33

    None.

Critical Paths under _main in BANK34

    None.

Critical Paths under _boot_int_lo in BANK34

    None.

Critical Paths under _main in BANK35

    None.

Critical Paths under _boot_int_lo in BANK35

    None.

Critical Paths under _main in BANK36

    None.

Critical Paths under _boot_int_lo in BANK36

    None.

Critical Paths under _main in BANK37

    None.

Critical Paths under _boot_int_lo in BANK37

    None.

Critical Paths under _main in BANK38

    None.

Critical Paths under _boot_int_lo in BANK38

    None.

Critical Paths under _main in BANK39

    None.

Critical Paths under _boot_int_lo in BANK39

    None.

Critical Paths under _main in BANK40

    None.

Critical Paths under _boot_int_lo in BANK40

    None.

Critical Paths under _main in BANK41

    None.

Critical Paths under _boot_int_lo in BANK41

    None.

Critical Paths under _main in BANK42

    None.

Critical Paths under _boot_int_lo in BANK42

    None.

Critical Paths under _main in BANK43

    None.

Critical Paths under _boot_int_lo in BANK43

    None.

Critical Paths under _main in BANK44

    None.

Critical Paths under _boot_int_lo in BANK44

    None.

Critical Paths under _main in BANK45

    None.

Critical Paths under _boot_int_lo in BANK45

    None.

Critical Paths under _main in BANK46

    None.

Critical Paths under _boot_int_lo in BANK46

    None.

Critical Paths under _main in BANK47

    None.

Critical Paths under _boot_int_lo in BANK47

    None.

Critical Paths under _main in BANK48

    None.

Critical Paths under _boot_int_lo in BANK48

    None.

Critical Paths under _main in BANK49

    None.

Critical Paths under _boot_int_lo in BANK49

    None.

Critical Paths under _main in BANK50

    None.

Critical Paths under _boot_int_lo in BANK50

    None.

Critical Paths under _main in BANK51

    None.

Critical Paths under _boot_int_lo in BANK51

    None.

Critical Paths under _main in BANK52

    None.

Critical Paths under _boot_int_lo in BANK52

    None.

Critical Paths under _main in BANK53

    None.

Critical Paths under _boot_int_lo in BANK53

    None.

Critical Paths under _main in BANK54

    None.

Critical Paths under _boot_int_lo in BANK54

    None.

Call Graph Tables:

 ---------------------------------------------------------------------------------
 (Depth) Function   	        Calls       Base Space   Used Autos Params    Refs
 ---------------------------------------------------------------------------------
 (0) _main                                                 0     0      0    2866
                  _SYSTEM_Initialize
                          _b_process
                        _do_write_ee
                           _pic_init
                      _update_status
                         _usart_init
 ---------------------------------------------------------------------------------
 (1) _usart_init                                           0     0      0       0
 ---------------------------------------------------------------------------------
 (1) _pic_init                                             0     0      0       0
 ---------------------------------------------------------------------------------
 (1) _b_process                                            9     9      0    2724
                                             21 COMRAM     9     9      0
                             _b_last
                      _b_write_block
                        _do_write_ee
                       _erase_eeprom
                        _erase_flash
                          _read_byte
                      _update_status
                    _usart_put_short
                      _usart_puts2_r
                         _usart_send
 ---------------------------------------------------------------------------------
 (2) _usart_put_short                                      2     0      2     356
                                             11 COMRAM     2     0      2
                      _usart_put_hex
 ---------------------------------------------------------------------------------
 (1) _update_status                                        1     1      0      22
                                              8 COMRAM     1     1      0
 ---------------------------------------------------------------------------------
 (2) _read_byte                                            2     2      0      92
                                              8 COMRAM     2     2      0
 ---------------------------------------------------------------------------------
 (2) _erase_flash                                          0     0      0     437
                           _do_write
                      _usart_puts2_r
 ---------------------------------------------------------------------------------
 (2) _erase_eeprom                                         0     0      0     437
                        _do_write_ee
                      _usart_puts2_r
 ---------------------------------------------------------------------------------
 (2) _usart_puts2_r                                        3     0      3     415
                                             12 COMRAM     3     0      3
                       _usart_puts_r
                         _usart_send
 ---------------------------------------------------------------------------------
 (3) _usart_puts_r                                         3     0      3     143
                                              9 COMRAM     3     0      3
                         _usart_send
 ---------------------------------------------------------------------------------
 (1) _do_write_ee                                          1     1      0      22
                                              8 COMRAM     1     1      0
 ---------------------------------------------------------------------------------
 (2) _b_last                                               3     3      0     444
                                             18 COMRAM     3     3      0
                      _b_write_block
 ---------------------------------------------------------------------------------
 (2) _b_write_block                                        3     3      0     444
                                             15 COMRAM     3     3      0
                           _do_write
                     _usart_put_long
                         _usart_send
 ---------------------------------------------------------------------------------
 (3) _usart_put_long                                       4     0      4     400
                                             11 COMRAM     4     0      4
                      _usart_put_hex
 ---------------------------------------------------------------------------------
 (3) _usart_put_hex                                        2     2      0     160
                                              9 COMRAM     2     2      0
                         _usart_send
 ---------------------------------------------------------------------------------
 (2) _usart_send                                           1     1      0      22
                                              8 COMRAM     1     1      0
 ---------------------------------------------------------------------------------
 (3) _do_write                                             4     4      0      22
                                              8 COMRAM     4     4      0
 ---------------------------------------------------------------------------------
 (1) _SYSTEM_Initialize                                    0     0      0      98
                   _CLOCK_Initialize
             _PIN_MANAGER_Initialize
                    _TMR0_Initialize
 ---------------------------------------------------------------------------------
 (2) _TMR0_Initialize                                      2     2      0      98
                                             10 COMRAM     2     2      0
      _TMR0_OverflowCallbackRegister
 ---------------------------------------------------------------------------------
 (3) _TMR0_OverflowCallbackRegister                        2     0      2      98
                                              8 COMRAM     2     0      2
 ---------------------------------------------------------------------------------
 (2) _PIN_MANAGER_Initialize                               0     0      0       0
 ---------------------------------------------------------------------------------
 (2) _CLOCK_Initialize                                     0     0      0       0
 ---------------------------------------------------------------------------------
 Estimated maximum stack depth 3
 ---------------------------------------------------------------------------------
 (Depth) Function   	        Calls       Base Space   Used Autos Params    Refs
 ---------------------------------------------------------------------------------
 (7) _boot_int_lo                                          7     7      0      22
                                              1 COMRAM     7     7      0
                      _serial_rx_int
                      _serial_tx_int
                    i1_update_status
 ---------------------------------------------------------------------------------
 (8) i1_update_status                                      1     1      0      22
                                              0 COMRAM     1     1      0
 ---------------------------------------------------------------------------------
 (8) _serial_tx_int                                        0     0      0       0
 ---------------------------------------------------------------------------------
 (8) _serial_rx_int                                        0     0      0       0
 ---------------------------------------------------------------------------------
 Estimated maximum stack depth 8
 ---------------------------------------------------------------------------------

 Call Graph Graphs:

 _main (ROOT)
   _SYSTEM_Initialize
     _CLOCK_Initialize
     _PIN_MANAGER_Initialize
     _TMR0_Initialize
       _TMR0_OverflowCallbackRegister
   _b_process
     _b_last
       _b_write_block
         _do_write
         _usart_put_long
           _usart_put_hex
             _usart_send
         _usart_send
     _b_write_block
     _do_write_ee
     _erase_eeprom
       _do_write_ee
       _usart_puts2_r
         _usart_puts_r
           _usart_send
         _usart_send
     _erase_flash
       _do_write
       _usart_puts2_r
     _read_byte
     _update_status
     _usart_put_short
       _usart_put_hex
     _usart_puts2_r
     _usart_send
   _do_write_ee
   _pic_init
   _update_status
   _usart_init

 _boot_int_lo (ROOT)
   _serial_rx_int
   _serial_tx_int
   i1_update_status

 Address spaces:
Name               Size   Autos  Total    Cost      Usage
BIGRAM            31FF      0       0     105        0.0%
BITBIGSFR_1        900      0       0     104        0.0%
EEDATA             400      0       0       0        0.0%
BITBIGSFRllllll    160      0       0     126        0.0%
BITBANK54          100      0       0     102        0.0%
BANK54             100      0       0     103        0.0%
BITBANK53          100      0       0     100        0.0%
BANK53             100      0       0     101        0.0%
BITBANK52          100      0       0      98        0.0%
BANK52             100      0       0      99        0.0%
BITBANK51          100      0       0      96        0.0%
BANK51             100      0       0      97        0.0%
BITBANK50          100      0       0      94        0.0%
BANK50             100      0       0      95        0.0%
BITBANK49          100      0       0      92        0.0%
BANK49             100      0       0      93        0.0%
BITBANK48          100      0       0      90        0.0%
BANK48             100      0       0      91        0.0%
BITBANK47          100      0       0      88        0.0%
BANK47             100      0       0      89        0.0%
BITBANK46          100      0       0      86        0.0%
BANK46             100      0       0      87        0.0%
BITBANK45          100      0       0      84        0.0%
BANK45             100      0       0      85        0.0%
BITBANK44          100      0       0      82        0.0%
BANK44             100      0       0      83        0.0%
BITBANK43          100      0       0      80        0.0%
BANK43             100      0       0      81        0.0%
BITBANK42          100      0       0      78        0.0%
BANK42             100      0       0      79        0.0%
BITBANK41          100      0       0      76        0.0%
BANK41             100      0       0      77        0.0%
BITBANK40          100      0       0      74        0.0%
BANK40             100      0       0      75        0.0%
BITBANK39          100      0       0      72        0.0%
BANK39             100      0       0      73        0.0%
BITBANK38          100      0       0      70        0.0%
BANK38             100      0       0      71        0.0%
BITBANK37          100      0       0      68        0.0%
BANK37             100      0       0      69        0.0%
BITBANK36          100      0       0      66        0.0%
BANK36             100      0       0      67        0.0%
BITBANK35          100      0       0      64        0.0%
BANK35             100      0       0      65        0.0%
BITBANK34          100      0       0      62        0.0%
BANK34             100      0       0      63        0.0%
BITBANK33          100      0       0      60        0.0%
BANK33             100      0       0      61        0.0%
BITBANK32          100      0       0      58        0.0%
BANK32             100      0       0      59        0.0%
BITBANK31          100      0       0      56        0.0%
BANK31             100      0       0      57        0.0%
BITBANK30          100      0       0      54        0.0%
BANK30             100      0       0      55        0.0%
BITBANK29          100      0       0      52        0.0%
BANK29             100      0       0      53        0.0%
BITBANK28          100      0       0      50        0.0%
BANK28             100      0       0      51        0.0%
BITBANK27          100      0       0      48        0.0%
BANK27             100      0       0      49        0.0%
BITBANK26          100      0       0      46        0.0%
BANK26             100      0       0      47        0.0%
BITBANK25          100      0       0      44        0.0%
BANK25             100      0       0      45        0.0%
BITBANK24          100      0       0      42        0.0%
BANK24             100      0       0      43        0.0%
BITBANK23          100      0       0      40        0.0%
BANK23             100      0       0      41        0.0%
BITBANK22          100      0       0      38        0.0%
BANK22             100      0       0      39        0.0%
BITBANK21          100      0       0      36        0.0%
BANK21             100      0       0      37        0.0%
BITBANK20          100      0       0      34        0.0%
BANK20             100      0       0      35        0.0%
BITBANK19          100      0       0      32        0.0%
BANK19             100      0       0      33        0.0%
BITBANK18          100      0       0      30        0.0%
BANK18             100      0       0      31        0.0%
BITBANK17          100      0       0      28        0.0%
BANK17             100      0       0      29        0.0%
BITBANK16          100      0       0      26        0.0%
BANK16             100      0       0      27        0.0%
BITBANK15          100      0       0      24        0.0%
BANK15             100      0       0      25        0.0%
BITBANK14          100      0       0      22        0.0%
BANK14             100      0       0      23        0.0%
BITBANK13          100      0       0      20        0.0%
BANK13             100      0       0      21        0.0%
BITBANK12          100      0       0      18        0.0%
BANK12             100      0       0      19        0.0%
BITBANK11          100      0       0      16        0.0%
BANK11             100      0       0      17        0.0%
BITBANK10          100      0       0      14        0.0%
BANK10             100      0       0      15        0.0%
BITBANK9           100      0       0      12        0.0%
BANK9              100      0       0      13        0.0%
BITBANK8           100      0       0      10        0.0%
BANK8              100      0       0      11        0.0%
BITBANK7           100      0       0       8        0.0%
BANK7              100      0     100       9      100.0%
BITBANK6           100      0       0       6        0.0%
BANK6              100      0      80       7       50.0%
BITBANK5            A0      0       0       4        0.0%
BANK5               A0      0      80       5       80.0%
BITBIGSFRllhhhh     97      0       0     117        0.0%
BITBIGSFRlhhhhh     79      0       0     115        0.0%
BITBIGSFRllhlh      64      0       0     120        0.0%
BITCOMRAM           5F      0       0       0        0.0%
COMRAM              5F     1E      38       1       58.9%
BITBIGSFRlllllh     52      0       0     124        0.0%
BITBIGSFRllhhhl     49      0       0     119        0.0%
BITBIGSFRllllll     40      0       0     134        0.0%
BITBIGSFRllllll     39      0       0     133        0.0%
BITBIGSFRhhh        29      0       0     106        0.0%
BITBIGSFRllllll     1F      0       0     129        0.0%
BITBIGSFRllhll      17      0       0     121        0.0%
BITBIGSFRlllh       13      0       0     122        0.0%
BITBIGSFRlhhhhh      C      0       0     113        0.0%
BITBIGSFRlhhhhh      9      0       0     111        0.0%
BITBIGSFRllllh       6      0       0     123        0.0%
BITBIGSFRhhlhh       4      0       0     107        0.0%
BITBIGSFRlhhhhl      3      0       0     116        0.0%
BITBIGSFRhhll        3      0       0     109        0.0%
BITBIGSFRhl          3      0       0     110        0.0%
BITBIGSFRllllll      2      0       0     130        0.0%
BITBIGSFRllllll      2      0       0     131        0.0%
BITBIGSFRllllll      1      0       0     132        0.0%
BITBIGSFRhhlhl       1      0       0     108        0.0%
BITBIGSFRllhhhh      1      0       0     118        0.0%
BITBIGSFRlhhhhh      1      0       0     114        0.0%
BITBIGSFRlhhhhh      1      0       0     112        0.0%
BITBIGSFRllllll      1      0       0     127        0.0%
BITBIGSFRllllll      1      0       0     128        0.0%
BITBIGSFRllllll      1      0       0     125        0.0%
BIGSFR_1             0      0       0     200        0.0%
BIGSFR               0      0       0     200        0.0%
BITSFR_14            0      0       0     200        0.0%
SFR_14               0      0       0     200        0.0%
BITSFR_13            0      0       0     200        0.0%
SFR_13               0      0       0     200        0.0%
BITSFR_12            0      0       0     200        0.0%
SFR_12               0      0       0     200        0.0%
BITSFR_11            0      0       0     200        0.0%
SFR_11               0      0       0     200        0.0%
BITSFR_10            0      0       0     200        0.0%
SFR_10               0      0       0     200        0.0%
BITSFR_9             0      0       0     200        0.0%
SFR_9                0      0       0     200        0.0%
BITSFR_8             0      0       0     200        0.0%
SFR_8                0      0       0     200        0.0%
BITSFR_7             0      0       0     200        0.0%
SFR_7                0      0       0     200        0.0%
BITSFR_6             0      0       0     200        0.0%
SFR_6                0      0       0     200        0.0%
BITSFR_5             0      0       0     200        0.0%
SFR_5                0      0       0     200        0.0%
BITSFR_4             0      0       0     200        0.0%
SFR_4                0      0       0     200        0.0%
BITSFR_3             0      0       0     200        0.0%
SFR_3                0      0       0     200        0.0%
BITSFR_2             0      0       0     200        0.0%
SFR_2                0      0       0     200        0.0%
BITSFR_1             0      0       0     200        0.0%
SFR_1                0      0       0     200        0.0%
BITSFR               0      0       0     200        0.0%
SFR                  0      0       0     200        0.0%
STACK                0      0       0       2        0.0%
NULL                 0      0       0       0        0.0%
ABS                  0      0     238     135        0.0%
DATA                 0      0     238       3        0.0%
CODE                 0      0       0       0        0.0%


Microchip Technology PIC18 Macro Assembler V2.46 build 20240104201356 
Symbol Table                                                                                   Wed Sep 04 09:46:02 2024

                                ?_boot_int_lo 0501                                 _update_status 0BAE  
                                         l602 0AA8                                           l514 0A28  
                                         l507 0BBE                                           l524 07C4  
                                         l536 01B6                                           l570 04BA  
                                ?_erase_flash 0501                                           u720 0884  
                                         u730 08B4                                           u727 087A  
                                         u737 08AA                                           u770 06C0  
                                         u960 01D8                                           u980 0202  
                                         u965 01CE                                           u985 01F8  
                                         _crc 0534                                           wreg 04E8  
                                 do_write@cmd 050C                                          l2003 0A36  
                                        l2007 0A52                                          l2017 08DA  
                                        l2201 0484                                          l2105 0148  
                                        l2027 08FE                                          l2131 023C  
                                        l2211 04B6                                          l2107 014E  
                                        l2037 0936                                          l2047 0952  
                                        l2151 02BA                                          l2137 026A  
                                        l2153 02C2                                          l2209 048A  
                                        l2147 029C                                          l2315 07CA  
                                        l2173 03A8                                          l2157 02C8  
                                        l2183 03B8                                          l2167 0392  
                                        l2175 03B0                                          l2185 03C0  
                                        l2177 03B4                                          l2193 0430  
                                        l2195 0434                                          l1921 09D6  
                                        l1905 0864                                          l1909 0894  
                                        l1943 0A94                                          l1963 0710  
                                        l1869 0B52                                          l1879 0B78  
                                        l1889 0AC2                                          l1899 0ADC  
                                        l1989 0A0A                                          STR_1 00DF  
                                        STR_2 00D0                                 ?_erase_eeprom 0501  
                                        u1040 02EA                                          u1045 02E0  
                                        _BUFX 0700                                          _LATA 04BE  
                                        _LATB 04BF                                          _LATC 04C0  
                                        _LATD 04C1                                          _LATE 04C2  
                                        _WPUA 0401                                          _WPUB 0409  
                                        _WPUC 0411                                          _WPUD 0419  
                                        _WPUE 0421                                          _addr 051F  
                                        _fsr2 0525                                          _main 0796  
                                        fsr0h 04EA                                          fsr1h 04E2  
                                        indf0 04EF                                          fsr2h 04DA  
                                        fsr0l 04E9                                          indf2 04DF  
                                        fsr1l 04E1                                          fsr2l 04D9  
                                        _type 0526                                          start 00C0  
                                ___param_bank 0000                       __end_of_TMR0_Initialize 0B50  
                              ?_update_status 0501                                         ?_main 0501  
                                       _U1P1H 02A6                                         _U1P2H 02A8  
                                       _U1P1L 02A5                                         _U1P3H 02AA  
                                       _U1P2L 02A7                                         _U1P3L 02A9  
                                       _LATB6 25FE                                         _LATB7 25FF  
                                       _IOCAF 0407                                         _IOCBF 040F  
                                       _IOCCF 0417                                         _IOCEF 0427  
                                       _IOCAN 0406                                         _IOCAP 0405  
                                       _IOCBN 040E                                         _IOCBP 040D  
                                       _IOCCN 0416                                         _IOCCP 0415  
                                       _IOCEN 0426                                         _IOCEP 0425  
                                       i1l303 0B18                                         _U1UIR 02B1  
                                       _U1RXB 02A1                                         i1l504 05A4  
                                       _U1TXB 02A3                                         i1l507 0BFA  
                                       i1l490 0574                                         i1l485 0582  
                                       i1l497 057A                                         _OSCEN 00B3  
                                       _TMR0H 0319                                         _TMR0L 0318  
                                       _PORTA 04CE                                         _PORTD 04D1  
                                       _TRISA 04C6                                         _TRISB 04C7  
                                       _TRISC 04C8                                         _TRISD 04C9  
                                       _TRISE 04CA                                         _flags 0538  
                                       _count 0527                                ??_erase_eeprom 0510  
                                _usart_puts_r 0862                                         _rx_in 052C  
                                       _tx_in 052F                                         tablat 04F5  
                                       status 04D8                              ?_usart_put_short 050C  
                       __end_of_b_write_block 071E                               __initialization 095A  
                                __end_of_main 0802                                        ??_main 051F  
                               __activetblptr 0003                               i1_update_status 0BEA  
                                      _ACTCON 00AC                                        _ANSELA 0400  
                                      _ANSELB 0408                                        _ANSELC 0410  
                                      _ANSELD 0418                                        _ANSELE 0420  
                                      _T0CON0 031A                                        _T0CON1 031B  
                                      _RB1I2C 0289                                        _RB2I2C 0288  
                                      _U1CON0 02AB                                        _U1CON1 02AC  
                                      _U1CON2 02AD                                        _RC3I2C 0287  
                                      _RC4I2C 0286                                        _U1BRGH 02AF  
                                      _U1FIFO 02B0                                        _U1BRGL 02AE  
                                      _RC3PPS 0214                                        _RC5PPS 0216  
                                      i1l2063 0BAA                                        i1l2057 0B8A  
                                      _ODCONA 0402                                        _ODCONB 040A  
                                      i1l2075 0B14                                        _RC6PPS 0217  
                                      _ODCONC 0412                                        _ODCOND 041A  
                                      i1l2261 0534                                        _ODCONE 0422  
                                      i1l2273 0570                                        i1l2265 0552  
                                      i1l2257 0506                                        i1l2291 059A  
                                      i1l2275 0578                                        i1l2285 0590  
                                      i1l2269 0560                                        _INLVLA 0404  
                                      _INLVLB 040C                                        _INLVLC 0414  
                                      _INLVLD 041C                                        _INLVLE 0424  
                                      _OSCFRQ 00B1                                        _TRISB6 263E  
                                      _TRISB7 263F                                        _Timer0 00C4  
                            __end_of_do_write 09EC                                        _b_last 0A30  
                             ??_update_status 0509                              ?_TMR0_Initialize 0501  
                                      clear_0 0962                                        clear_1 0974  
                                      clear_2 0980                                        clear_3 098C  
                               _usart_puts2_r 0BCC                              __end_of_pic_init 0862  
                               _usart_put_hex 0AAE                                        _tblptr 0531  
                                      isa$std 0001                                        _rx_out 052B  
                           ?_CLOCK_Initialize 0501                                        _tx_out 052E  
                          ??_CLOCK_Initialize 0509                                        tblptrh 04F7  
                                      tblptrl 04F6                                        tblptru 04F8  
                                 read_byte@hi 0509                                   read_byte@lo 050A  
                           _SYSTEM_Initialize 0C4C                                    __accesstop 0560  
                     __end_of__initialization 09A0                            ?_SYSTEM_Initialize 0501  
                               ___rparam_used 0001                          __end_of_boot_version 0008  
                              __pcstackCOMRAM 0501                           ??_SYSTEM_Initialize 050D  
                       __end_of_serial_rx_int 0B1E                          __end_of_erase_eeprom 095A  
                       __end_of_serial_tx_int 0BAE                                ?_usart_puts2_r 050D  
                              ?_usart_put_hex 0501                       __end_ofi1_update_status 0C08  
                   __end_of_SYSTEM_Initialize 0C5A                                    __pbssBANK5 0560  
                                  __pbssBANK6 0600                                    __pbssBANK7 0700  
                                  __pnvCOMRAM 0534                         _TMR0_OverflowCallback 0536  
                                     IVTBASEH 045E                                       IVTBASEL 045D  
                                     IVTBASEU 045F                                       ?_b_last 0501  
                                     _U1ERRIE 02B3                                       _U1ERRIR 02B2  
                                     _U1RXCHK 02A2                                       _U1TXCHK 02A4  
                                     _U1RXPPS 0272                                       _OSCCON1 00AD  
                                     _OSCCON3 00AF                                       _SPI1CLK 008C  
                                     _SPI1RXB 0080                                       _NVMADRH 0044  
                                     _NVMADRL 0043                                       _SPI1TXB 0081  
                                     _NVMADRU 0045                                       _OSCTUNE 00B0  
                                     _NVMDATL 0046                          __p_boot_version_text 0006  
                                     _NVMLOCK 0042                                       _SLRCONA 0403  
                                     _SLRCONB 040B                                       _SLRCONC 0413  
                              usart_send@data 0509                                       _SLRCOND 041B  
                                     _SLRCONE 0423                                     ?_do_write 0501  
                           __end_of_b_process 04C8                                     ?_pic_init 0501  
                                     __Hparam 0000                                       __Lparam 0000  
                             ??_usart_puts2_r 0510                                usart_put_hex@c 050A  
                             ??_usart_put_hex 050A                                usart_put_hex@x 050B  
                                     __pcinit 095A                                       __pconst 00C4  
                                     __ramtop 3700                              ?i1_update_status 0501  
                                     __ptext0 0796                                       __ptext1 071E  
                                     __ptext2 0802                                       __ptext3 00EE  
                                     __ptext4 0C3E                                       __ptext5 0BAE  
                                     __ptext6 09EC                                       __ptext7 08BC  
                                     __ptext8 090C                                       __ptext9 0BCC  
                                     _discard 052A                             __end_of_read_byte 0A30  
                     _timerTMR0ReloadVal16bit 0523                      ??_PIN_MANAGER_Initialize 0509  
                              _usart_put_long 0C24                                       _timeout 0529  
                                  ??_do_write 0509                          end_of_initialization 09A0  
                         update_status@status 0509                                    ??_pic_init 0509  
                                  _serial_out 0560                                     _SPI1TCNTL 0082  
                                     postdec1 04E5                                       postinc0 04EE  
                                     postinc2 04DE                                     _PORTAbits 04CE  
                                   _TMR0_Stop 0000                                     _PORTBbits 04CF  
       __end_of_TMR0_OverflowCallbackRegister 0C64                 _TMR0_OverflowCallbackRegister 0C5A  
                      __end_of_usart_put_long 0C3E  TMR0_OverflowCallbackRegister@CallbackHandler 0509  
                                _boot_version 0006                                     _TRISAbits 04C6  
                                   _TRISBbits 04C7                                     _TRISCbits 04C8  
                                   _TRISEbits 04CA                                  _erase_eeprom 090C  
                _TMR0_DefaultOverflowCallback 0000                                    _usart_init 071E  
                                  _usart_send 0B50                                 ??_do_write_ee 0509  
                              __end_of_Timer0 00D0                                 ??_boot_int_lo 0502  
                              __end_of_b_last 0A74                         __end_of_update_status 0BCC  
                               ??_erase_flash 0510                               ?_usart_put_long 050C  
                         start_initialization 095A                          _boot_version_absaddr 0006  
                                  ivt0x8_base 0008                                 _b_write_block 06A2  
                            usart_puts2_r@str 050D                               do_write_ee@data 0509  
                                    ??_b_last 0513                           __end_of_do_write_ee 0AAE  
                         __end_of_boot_int_lo 05BA                             ??_usart_put_short 050E  
                                 __pbssCOMRAM 051F                           __end_of_erase_flash 090C  
              ?_TMR0_OverflowCallbackRegister 0509                              usart_put_short@x 050C  
                               ?_usart_puts_r 050A                                     _b_process 00EE  
                                 ?_usart_init 0501                                   ?_usart_send 0501  
                              ?_b_write_block 0501                        _PIN_MANAGER_Initialize 05BA  
                              ??_usart_puts_r 050D                                     _read_byte 09EC  
                                 _U1ERRIRbits 02B2                              _CLOCK_Initialize 0C08  
                           ??_TMR0_Initialize 050B                                      _LATAbits 04BE  
                                    _LATBbits 04BF                                      _LATCbits 04C0  
                                  ?_b_process 0501                                      _IPR3bits 0365  
                                    _IPR4bits 0366                                      _PIE3bits 04A1  
                                    _IPR6bits 0368                                      _PIE4bits 04A2  
                                    _PIE6bits 04A4                                  _SPI1CON0bits 0084  
                                    _SPI1BAUD 0089                                      _PIR3bits 04B1  
                                    _PIR4bits 04B2                                      _SPI1CON0 0084  
                                    _SPI1CON1 0085                                      _SPI1CON2 0086  
                                    _PIR6bits 04B4                                     _serial_in 0600  
                                 _do_write_ee 0A74                                   _boot_int_lo 04C8  
                       __end_of_usart_puts2_r 0BEA                         __end_of_usart_put_hex 0AE8  
                               _serial_rx_int 0AE8                                 _serial_tx_int 0B80  
                                 _erase_flash 08BC                                   _INTCON0bits 04D6  
                                  ?_read_byte 0501                               ??_b_write_block 0510  
                                    __Hrparam 0000                                      __Lrparam 0000  
                              ?_serial_rx_int 0501                                ?_serial_tx_int 0501  
                            ??_usart_put_long 0510                               usart_put_long@x 050C  
                         _TMR0_PeriodCountSet 0000                               usart_puts_r@str 050A  
                                  _T0CON0bits 031A                                      _checksum 0528  
                                    __pivt0x8 0008                                      __ptext10 0862  
                                    __ptext11 0A74                                      __ptext20 0C5A  
                                    __ptext12 0A30                                      __ptext21 05BA  
                                    __ptext13 06A2                                      __ptext22 0C08  
                                    __ptext14 0C24                                      __ptext23 04C8  
                                    __ptext15 0AAE                                      __ptext24 0BEA  
                                    __ptext16 0B50                                      __ptext25 0B80  
                                    __ptext17 09A6                                      __ptext26 0AE8  
                                    __ptext18 0C4C                                      __ptext19 0B1E  
                                    _do_write 09A6                                   ??_b_process 0516  
                                    _pic_init 0802                                      isa$xinst 0000  
                             _usart_put_short 0C3E                          __end_of_usart_puts_r 08BC  
                                    _rx_count 052D                                      _tx_count 0530  
                                 _NVMCON0bits 0040                                   _NVMCON1bits 0041  
                             b_process@status 051E                                   ??_read_byte 0509  
                                    intlevel1 0000                         i1update_status@status 0501  
                     ?_PIN_MANAGER_Initialize 0501                             ??i1_update_status 0501  
                                ??_usart_init 0509                                  ??_usart_send 0509  
             ??_TMR0_OverflowCallbackRegister 050B                               ??_serial_rx_int 0501  
                             ??_serial_tx_int 0501                                    _SPI1SCKPPS 026A  
                                  _SPI1SDIPPS 026B                      __end_of_CLOCK_Initialize 0C24  
                             _TMR0_Initialize 0B1E                            __end_of_usart_init 0796  
                          __end_of_usart_send 0B80                                    _TMR0_Start 0000  
              __end_of_PIN_MANAGER_Initialize 06A2                       __end_of_usart_put_short 0C4C  
                                ?_do_write_ee 0501  
